Component: ARM Compiler 5.05 update 2 (build 169) Tool: armlink [4d0f33]

==============================================================================

Section Cross References

    main.o(i.SystemClock_Config) refers to stm32f4xx_hal_rcc.o(i.HAL_RCC_OscConfig) for HAL_RCC_OscConfig
    main.o(i.SystemClock_Config) refers to stm32f4xx_hal_rcc.o(i.HAL_RCC_ClockConfig) for HAL_RCC_ClockConfig
    main.o(i.SystemClock_Config) refers to stm32f4xx_hal_rcc_ex.o(i.HAL_RCCEx_PeriphCLKConfig) for HAL_RCCEx_PeriphCLKConfig
    main.o(i.SystemClock_Config) refers to stm32f4xx_hal_rcc.o(i.HAL_RCC_GetHCLKFreq) for HAL_RCC_GetHCLKFreq
    main.o(i.SystemClock_Config) refers to stm32f4xx_hal_cortex.o(i.HAL_SYSTICK_Config) for HAL_SYSTICK_Config
    main.o(i.SystemClock_Config) refers to stm32f4xx_hal_cortex.o(i.HAL_SYSTICK_CLKSourceConfig) for HAL_SYSTICK_CLKSourceConfig
    main.o(i.SystemClock_Config) refers to stm32f4xx_hal_cortex.o(i.HAL_NVIC_SetPriority) for HAL_NVIC_SetPriority
    main.o(i.main) refers to stm32f4xx_hal.o(i.HAL_Init) for HAL_Init
    main.o(i.main) refers to main.o(i.SystemClock_Config) for SystemClock_Config
    main.o(i.main) refers to gpio.o(i.MX_GPIO_Init) for MX_GPIO_Init
    main.o(i.main) refers to dma.o(i.MX_DMA_Init) for MX_DMA_Init
    main.o(i.main) refers to dma2d.o(i.MX_DMA2D_Init) for MX_DMA2D_Init
    main.o(i.main) refers to fmc.o(i.MX_FMC_Init) for MX_FMC_Init
    main.o(i.main) refers to ltdc.o(i.MX_LTDC_Init) for MX_LTDC_Init
    main.o(i.main) refers to sdio.o(i.MX_SDIO_SD_Init) for MX_SDIO_SD_Init
    main.o(i.main) refers to usb_device.o(i.MX_USB_DEVICE_Init) for MX_USB_DEVICE_Init
    main.o(i.main) refers to stm324x9i_sdram.o(i.BSP_SDRAM_Init) for BSP_SDRAM_Init
    main.o(i.main) refers to stm324x9i_lcd.o(i.BSP_LCD_Init) for BSP_LCD_Init
    main.o(i.main) refers to stm324x9i_lcd.o(i.BSP_LCD_SetLayerVisible) for BSP_LCD_SetLayerVisible
    main.o(i.main) refers to stm324x9i_lcd.o(i.BSP_LCD_SelectLayer) for BSP_LCD_SelectLayer
    main.o(i.main) refers to lcd_log.o(i.LCD_LOG_Init) for LCD_LOG_Init
    main.o(i.main) refers to lcd_log.o(i.LCD_LOG_SetHeader) for LCD_LOG_SetHeader
    main.o(i.main) refers to lcd_log.o(i.LCD_LOG_SetFooter) for LCD_LOG_SetFooter
    stm32f4xx_it.o(i.DMA2_Stream3_IRQHandler) refers to stm32f4xx_hal_dma.o(i.HAL_DMA_IRQHandler) for HAL_DMA_IRQHandler
    stm32f4xx_it.o(i.DMA2_Stream3_IRQHandler) refers to sdio.o(.bss) for hdma_sdio_rx
    stm32f4xx_it.o(i.DMA2_Stream6_IRQHandler) refers to stm32f4xx_hal_dma.o(i.HAL_DMA_IRQHandler) for HAL_DMA_IRQHandler
    stm32f4xx_it.o(i.DMA2_Stream6_IRQHandler) refers to sdio.o(.bss) for hdma_sdio_tx
    stm32f4xx_it.o(i.OTG_FS_IRQHandler) refers to stm32f4xx_hal_pcd.o(i.HAL_PCD_IRQHandler) for HAL_PCD_IRQHandler
    stm32f4xx_it.o(i.OTG_FS_IRQHandler) refers to usbd_conf.o(.bss) for hpcd_USB_OTG_FS
    stm32f4xx_it.o(i.SDIO_IRQHandler) refers to stm32f4xx_hal_sd.o(i.HAL_SD_IRQHandler) for HAL_SD_IRQHandler
    stm32f4xx_it.o(i.SDIO_IRQHandler) refers to sdio.o(.bss) for hsd
    stm32f4xx_it.o(i.SysTick_Handler) refers to stm32f4xx_hal.o(i.HAL_IncTick) for HAL_IncTick
    stm32f4xx_it.o(i.SysTick_Handler) refers to stm32f4xx_hal_cortex.o(i.HAL_SYSTICK_IRQHandler) for HAL_SYSTICK_IRQHandler
    stm32f4xx_hal_msp.o(i.HAL_MspInit) refers to stm32f4xx_hal_cortex.o(i.HAL_NVIC_SetPriorityGrouping) for HAL_NVIC_SetPriorityGrouping
    stm32f4xx_hal_msp.o(i.HAL_MspInit) refers to stm32f4xx_hal_cortex.o(i.HAL_NVIC_SetPriority) for HAL_NVIC_SetPriority
    dma2d.o(i.MX_DMA2D_Init) refers to stm32f4xx_hal_dma2d.o(i.HAL_DMA2D_Init) for HAL_DMA2D_Init
    dma2d.o(i.MX_DMA2D_Init) refers to stm32f4xx_hal_dma2d.o(i.HAL_DMA2D_ConfigLayer) for HAL_DMA2D_ConfigLayer
    dma2d.o(i.MX_DMA2D_Init) refers to dma2d.o(.bss) for .bss
    ltdc.o(i.HAL_LTDC_MspDeInit) refers to stm32f4xx_hal_gpio.o(i.HAL_GPIO_DeInit) for HAL_GPIO_DeInit
    ltdc.o(i.HAL_LTDC_MspInit) refers to stm32f4xx_hal_gpio.o(i.HAL_GPIO_Init) for HAL_GPIO_Init
    ltdc.o(i.MX_LTDC_Init) refers to stm32f4xx_hal_ltdc.o(i.HAL_LTDC_Init) for HAL_LTDC_Init
    ltdc.o(i.MX_LTDC_Init) refers to stm32f4xx_hal_ltdc.o(i.HAL_LTDC_ConfigLayer) for HAL_LTDC_ConfigLayer
    ltdc.o(i.MX_LTDC_Init) refers to ltdc.o(.bss) for .bss
    gpio.o(i.BSP_LED_Off) refers to stm32f4xx_hal_gpio.o(i.HAL_GPIO_WritePin) for HAL_GPIO_WritePin
    gpio.o(i.BSP_LED_Off) refers to gpio.o(.constdata) for .constdata
    gpio.o(i.BSP_LED_Off) refers to gpio.o(.data) for .data
    gpio.o(i.BSP_LED_On) refers to stm32f4xx_hal_gpio.o(i.HAL_GPIO_WritePin) for HAL_GPIO_WritePin
    gpio.o(i.BSP_LED_On) refers to gpio.o(.constdata) for .constdata
    gpio.o(i.BSP_LED_On) refers to gpio.o(.data) for .data
    gpio.o(i.BSP_LED_Toggle) refers to stm32f4xx_hal_gpio.o(i.HAL_GPIO_TogglePin) for HAL_GPIO_TogglePin
    gpio.o(i.BSP_LED_Toggle) refers to gpio.o(.constdata) for .constdata
    gpio.o(i.BSP_LED_Toggle) refers to gpio.o(.data) for .data
    gpio.o(i.MX_GPIO_Init) refers to stm32f4xx_hal_gpio.o(i.HAL_GPIO_Init) for HAL_GPIO_Init
    fmc.o(i.HAL_FMC_MspDeInit) refers to stm32f4xx_hal_gpio.o(i.HAL_GPIO_DeInit) for HAL_GPIO_DeInit
    fmc.o(i.HAL_FMC_MspDeInit) refers to fmc.o(.data) for .data
    fmc.o(i.HAL_FMC_MspInit) refers to stm32f4xx_hal_gpio.o(i.HAL_GPIO_Init) for HAL_GPIO_Init
    fmc.o(i.HAL_FMC_MspInit) refers to fmc.o(.data) for .data
    fmc.o(i.HAL_SDRAM_MspDeInit) refers to fmc.o(i.HAL_FMC_MspDeInit) for HAL_FMC_MspDeInit
    fmc.o(i.HAL_SDRAM_MspInit) refers to fmc.o(i.HAL_FMC_MspInit) for HAL_FMC_MspInit
    fmc.o(i.MX_FMC_Init) refers to stm32f4xx_hal_sdram.o(i.HAL_SDRAM_Init) for HAL_SDRAM_Init
    fmc.o(i.MX_FMC_Init) refers to fmc.o(.bss) for .bss
    dma.o(i.MX_DMA_Init) refers to stm32f4xx_hal_dma.o(i.HAL_DMA_Init) for HAL_DMA_Init
    dma.o(i.MX_DMA_Init) refers to stm32f4xx_hal_cortex.o(i.HAL_NVIC_SetPriority) for HAL_NVIC_SetPriority
    dma.o(i.MX_DMA_Init) refers to stm32f4xx_hal_cortex.o(i.HAL_NVIC_EnableIRQ) for HAL_NVIC_EnableIRQ
    dma.o(i.MX_DMA_Init) refers to dma.o(.bss) for .bss
    usbd_conf.o(i.HAL_PCD_ConnectCallback) refers to usbd_core.o(i.USBD_LL_DevConnected) for USBD_LL_DevConnected
    usbd_conf.o(i.HAL_PCD_DataInStageCallback) refers to usbd_core.o(i.USBD_LL_DataInStage) for USBD_LL_DataInStage
    usbd_conf.o(i.HAL_PCD_DataOutStageCallback) refers to usbd_core.o(i.USBD_LL_DataOutStage) for USBD_LL_DataOutStage
    usbd_conf.o(i.HAL_PCD_DisconnectCallback) refers to usbd_core.o(i.USBD_LL_DevDisconnected) for USBD_LL_DevDisconnected
    usbd_conf.o(i.HAL_PCD_ISOINIncompleteCallback) refers to usbd_core.o(i.USBD_LL_IsoINIncomplete) for USBD_LL_IsoINIncomplete
    usbd_conf.o(i.HAL_PCD_ISOOUTIncompleteCallback) refers to usbd_core.o(i.USBD_LL_IsoOUTIncomplete) for USBD_LL_IsoOUTIncomplete
    usbd_conf.o(i.HAL_PCD_MspDeInit) refers to stm32f4xx_hal_gpio.o(i.HAL_GPIO_DeInit) for HAL_GPIO_DeInit
    usbd_conf.o(i.HAL_PCD_MspDeInit) refers to stm32f4xx_hal_cortex.o(i.HAL_NVIC_DisableIRQ) for HAL_NVIC_DisableIRQ
    usbd_conf.o(i.HAL_PCD_MspInit) refers to stm32f4xx_hal_gpio.o(i.HAL_GPIO_Init) for HAL_GPIO_Init
    usbd_conf.o(i.HAL_PCD_MspInit) refers to stm32f4xx_hal_cortex.o(i.HAL_NVIC_SetPriority) for HAL_NVIC_SetPriority
    usbd_conf.o(i.HAL_PCD_MspInit) refers to stm32f4xx_hal_cortex.o(i.HAL_NVIC_EnableIRQ) for HAL_NVIC_EnableIRQ
    usbd_conf.o(i.HAL_PCD_ResetCallback) refers to usbd_core.o(i.USBD_LL_SetSpeed) for USBD_LL_SetSpeed
    usbd_conf.o(i.HAL_PCD_ResetCallback) refers to usbd_core.o(i.USBD_LL_Reset) for USBD_LL_Reset
    usbd_conf.o(i.HAL_PCD_ResumeCallback) refers to usbd_core.o(i.USBD_LL_Resume) for USBD_LL_Resume
    usbd_conf.o(i.HAL_PCD_SOFCallback) refers to usbd_core.o(i.USBD_LL_SOF) for USBD_LL_SOF
    usbd_conf.o(i.HAL_PCD_SetupStageCallback) refers to usbd_core.o(i.USBD_LL_SetupStage) for USBD_LL_SetupStage
    usbd_conf.o(i.HAL_PCD_SuspendCallback) refers to usbd_core.o(i.USBD_LL_Suspend) for USBD_LL_Suspend
    usbd_conf.o(i.USBD_LL_ClearStallEP) refers to stm32f4xx_hal_pcd.o(i.HAL_PCD_EP_ClrStall) for HAL_PCD_EP_ClrStall
    usbd_conf.o(i.USBD_LL_CloseEP) refers to stm32f4xx_hal_pcd.o(i.HAL_PCD_EP_Close) for HAL_PCD_EP_Close
    usbd_conf.o(i.USBD_LL_DeInit) refers to stm32f4xx_hal_pcd.o(i.HAL_PCD_DeInit) for HAL_PCD_DeInit
    usbd_conf.o(i.USBD_LL_Delay) refers to stm32f4xx_hal.o(i.HAL_Delay) for HAL_Delay
    usbd_conf.o(i.USBD_LL_FlushEP) refers to stm32f4xx_hal_pcd.o(i.HAL_PCD_EP_Flush) for HAL_PCD_EP_Flush
    usbd_conf.o(i.USBD_LL_GetRxDataSize) refers to stm32f4xx_hal_pcd.o(i.HAL_PCD_EP_GetRxCount) for HAL_PCD_EP_GetRxCount
    usbd_conf.o(i.USBD_LL_Init) refers to stm32f4xx_hal_pcd.o(i.HAL_PCD_Init) for HAL_PCD_Init
    usbd_conf.o(i.USBD_LL_Init) refers to stm32f4xx_hal_pcd_ex.o(i.HAL_PCDEx_SetRxFiFo) for HAL_PCDEx_SetRxFiFo
    usbd_conf.o(i.USBD_LL_Init) refers to stm32f4xx_hal_pcd_ex.o(i.HAL_PCDEx_SetTxFiFo) for HAL_PCDEx_SetTxFiFo
    usbd_conf.o(i.USBD_LL_Init) refers to usbd_conf.o(.bss) for .bss
    usbd_conf.o(i.USBD_LL_OpenEP) refers to stm32f4xx_hal_pcd.o(i.HAL_PCD_EP_Open) for HAL_PCD_EP_Open
    usbd_conf.o(i.USBD_LL_PrepareReceive) refers to stm32f4xx_hal_pcd.o(i.HAL_PCD_EP_Receive) for HAL_PCD_EP_Receive
    usbd_conf.o(i.USBD_LL_SetUSBAddress) refers to stm32f4xx_hal_pcd.o(i.HAL_PCD_SetAddress) for HAL_PCD_SetAddress
    usbd_conf.o(i.USBD_LL_StallEP) refers to stm32f4xx_hal_pcd.o(i.HAL_PCD_EP_SetStall) for HAL_PCD_EP_SetStall
    usbd_conf.o(i.USBD_LL_Start) refers to stm32f4xx_hal_pcd.o(i.HAL_PCD_Start) for HAL_PCD_Start
    usbd_conf.o(i.USBD_LL_Stop) refers to stm32f4xx_hal_pcd.o(i.HAL_PCD_Stop) for HAL_PCD_Stop
    usbd_conf.o(i.USBD_LL_Transmit) refers to stm32f4xx_hal_pcd.o(i.HAL_PCD_EP_Transmit) for HAL_PCD_EP_Transmit
    usbd_desc.o(i.USBD_FS_ConfigStrDescriptor) refers to usbd_ctlreq.o(i.USBD_GetString) for USBD_GetString
    usbd_desc.o(i.USBD_FS_ConfigStrDescriptor) refers to usbd_desc.o(.bss) for .bss
    usbd_desc.o(i.USBD_FS_DeviceDescriptor) refers to usbd_desc.o(.data) for .data
    usbd_desc.o(i.USBD_FS_InterfaceStrDescriptor) refers to usbd_ctlreq.o(i.USBD_GetString) for USBD_GetString
    usbd_desc.o(i.USBD_FS_InterfaceStrDescriptor) refers to usbd_desc.o(.bss) for .bss
    usbd_desc.o(i.USBD_FS_LangIDStrDescriptor) refers to usbd_desc.o(.data) for .data
    usbd_desc.o(i.USBD_FS_ManufacturerStrDescriptor) refers to usbd_ctlreq.o(i.USBD_GetString) for USBD_GetString
    usbd_desc.o(i.USBD_FS_ManufacturerStrDescriptor) refers to usbd_desc.o(.bss) for .bss
    usbd_desc.o(i.USBD_FS_ProductStrDescriptor) refers to usbd_ctlreq.o(i.USBD_GetString) for USBD_GetString
    usbd_desc.o(i.USBD_FS_ProductStrDescriptor) refers to usbd_desc.o(.bss) for .bss
    usbd_desc.o(i.USBD_FS_SerialStrDescriptor) refers to usbd_ctlreq.o(i.USBD_GetString) for USBD_GetString
    usbd_desc.o(i.USBD_FS_SerialStrDescriptor) refers to usbd_desc.o(.bss) for .bss
    usbd_desc.o(.data) refers to usbd_desc.o(i.USBD_FS_DeviceDescriptor) for USBD_FS_DeviceDescriptor
    usbd_desc.o(.data) refers to usbd_desc.o(i.USBD_FS_LangIDStrDescriptor) for USBD_FS_LangIDStrDescriptor
    usbd_desc.o(.data) refers to usbd_desc.o(i.USBD_FS_ManufacturerStrDescriptor) for USBD_FS_ManufacturerStrDescriptor
    usbd_desc.o(.data) refers to usbd_desc.o(i.USBD_FS_ProductStrDescriptor) for USBD_FS_ProductStrDescriptor
    usbd_desc.o(.data) refers to usbd_desc.o(i.USBD_FS_SerialStrDescriptor) for USBD_FS_SerialStrDescriptor
    usbd_desc.o(.data) refers to usbd_desc.o(i.USBD_FS_ConfigStrDescriptor) for USBD_FS_ConfigStrDescriptor
    usbd_desc.o(.data) refers to usbd_desc.o(i.USBD_FS_InterfaceStrDescriptor) for USBD_FS_InterfaceStrDescriptor
    usb_device.o(i.MX_USB_DEVICE_Init) refers to usbd_core.o(i.USBD_Init) for USBD_Init
    usb_device.o(i.MX_USB_DEVICE_Init) refers to usbd_core.o(i.USBD_RegisterClass) for USBD_RegisterClass
    usb_device.o(i.MX_USB_DEVICE_Init) refers to usbd_msc.o(i.USBD_MSC_RegisterStorage) for USBD_MSC_RegisterStorage
    usb_device.o(i.MX_USB_DEVICE_Init) refers to usbd_core.o(i.USBD_Start) for USBD_Start
    usb_device.o(i.MX_USB_DEVICE_Init) refers to usbd_desc.o(.data) for FS_Desc
    usb_device.o(i.MX_USB_DEVICE_Init) refers to usb_device.o(.bss) for .bss
    usb_device.o(i.MX_USB_DEVICE_Init) refers to usbd_msc.o(.data) for USBD_MSC
    usb_device.o(i.MX_USB_DEVICE_Init) refers to usbd_storage_if.o(.data) for USBD_Storage_Interface_fops_FS
    usbd_storage_if.o(i.STORAGE_GetCapacity_FS) refers to stm32f4xx_hal_sd.o(i.HAL_SD_Get_CardInfo) for HAL_SD_Get_CardInfo
    usbd_storage_if.o(i.STORAGE_GetCapacity_FS) refers to sdio.o(.bss) for hsd
    usbd_storage_if.o(i.STORAGE_IsReady_FS) refers to stm32f4xx_hal_sd.o(i.HAL_SD_GetStatus) for HAL_SD_GetStatus
    usbd_storage_if.o(i.STORAGE_IsReady_FS) refers to sdio.o(.bss) for hsd
    usbd_storage_if.o(i.STORAGE_Read_FS) refers to stm32f4xx_hal_sd.o(i.HAL_SD_ReadBlocks_DMA) for HAL_SD_ReadBlocks_DMA
    usbd_storage_if.o(i.STORAGE_Read_FS) refers to stm32f4xx_hal_sd.o(i.HAL_SD_CheckReadOperation) for HAL_SD_CheckReadOperation
    usbd_storage_if.o(i.STORAGE_Read_FS) refers to sdio.o(.bss) for hsd
    usbd_storage_if.o(i.STORAGE_Write_FS) refers to stm32f4xx_hal_sd.o(i.HAL_SD_WriteBlocks_DMA) for HAL_SD_WriteBlocks_DMA
    usbd_storage_if.o(i.STORAGE_Write_FS) refers to stm32f4xx_hal_sd.o(i.HAL_SD_CheckWriteOperation) for HAL_SD_CheckWriteOperation
    usbd_storage_if.o(i.STORAGE_Write_FS) refers to sdio.o(.bss) for hsd
    usbd_storage_if.o(.data) refers to usbd_storage_if.o(i.STORAGE_Init_FS) for STORAGE_Init_FS
    usbd_storage_if.o(.data) refers to usbd_storage_if.o(i.STORAGE_GetCapacity_FS) for STORAGE_GetCapacity_FS
    usbd_storage_if.o(.data) refers to usbd_storage_if.o(i.STORAGE_IsReady_FS) for STORAGE_IsReady_FS
    usbd_storage_if.o(.data) refers to usbd_storage_if.o(i.STORAGE_IsWriteProtected_FS) for STORAGE_IsWriteProtected_FS
    usbd_storage_if.o(.data) refers to usbd_storage_if.o(i.STORAGE_Read_FS) for STORAGE_Read_FS
    usbd_storage_if.o(.data) refers to usbd_storage_if.o(i.STORAGE_Write_FS) for STORAGE_Write_FS
    usbd_storage_if.o(.data) refers to usbd_storage_if.o(i.STORAGE_GetMaxLun_FS) for STORAGE_GetMaxLun_FS
    usbd_storage_if.o(.data) refers to usbd_storage_if.o(.constdata) for STORAGE_Inquirydata_FS
    sdio.o(i.BSP_SD_IsDetected) refers to stm32f4xx_hal_gpio.o(i.HAL_GPIO_ReadPin) for HAL_GPIO_ReadPin
    sdio.o(i.HAL_SD_MspDeInit) refers to stm32f4xx_hal_gpio.o(i.HAL_GPIO_DeInit) for HAL_GPIO_DeInit
    sdio.o(i.HAL_SD_MspDeInit) refers to stm32f4xx_hal_dma.o(i.HAL_DMA_DeInit) for HAL_DMA_DeInit
    sdio.o(i.HAL_SD_MspDeInit) refers to stm32f4xx_hal_cortex.o(i.HAL_NVIC_DisableIRQ) for HAL_NVIC_DisableIRQ
    sdio.o(i.HAL_SD_MspInit) refers to stm32f4xx_hal_gpio.o(i.HAL_GPIO_Init) for HAL_GPIO_Init
    sdio.o(i.HAL_SD_MspInit) refers to stm32f4xx_hal_dma.o(i.HAL_DMA_Init) for HAL_DMA_Init
    sdio.o(i.HAL_SD_MspInit) refers to stm32f4xx_hal_cortex.o(i.HAL_NVIC_SetPriority) for HAL_NVIC_SetPriority
    sdio.o(i.HAL_SD_MspInit) refers to stm32f4xx_hal_cortex.o(i.HAL_NVIC_EnableIRQ) for HAL_NVIC_EnableIRQ
    sdio.o(i.HAL_SD_MspInit) refers to sdio.o(.bss) for .bss
    sdio.o(i.MX_SDIO_SD_Init) refers to stm32f4xx_hal_sd.o(i.HAL_SD_Init) for HAL_SD_Init
    sdio.o(i.MX_SDIO_SD_Init) refers to stm32f4xx_hal_sd.o(i.HAL_SD_WideBusOperation_Config) for HAL_SD_WideBusOperation_Config
    sdio.o(i.MX_SDIO_SD_Init) refers to sdio.o(.bss) for .bss
    stm324x9i_lcd.o(i.BSP_LCD_Clear) refers to stm324x9i_lcd.o(i.BSP_LCD_GetYSize) for BSP_LCD_GetYSize
    stm324x9i_lcd.o(i.BSP_LCD_Clear) refers to stm324x9i_lcd.o(i.BSP_LCD_GetXSize) for BSP_LCD_GetXSize
    stm324x9i_lcd.o(i.BSP_LCD_Clear) refers to stm324x9i_lcd.o(i.LL_FillBuffer) for LL_FillBuffer
    stm324x9i_lcd.o(i.BSP_LCD_Clear) refers to stm324x9i_lcd.o(.data) for .data
    stm324x9i_lcd.o(i.BSP_LCD_Clear) refers to ltdc.o(.bss) for hltdc
    stm324x9i_lcd.o(i.BSP_LCD_ClearStringLine) refers to stm324x9i_lcd.o(i.BSP_LCD_GetXSize) for BSP_LCD_GetXSize
    stm324x9i_lcd.o(i.BSP_LCD_ClearStringLine) refers to stm324x9i_lcd.o(i.BSP_LCD_FillRect) for BSP_LCD_FillRect
    stm324x9i_lcd.o(i.BSP_LCD_ClearStringLine) refers to stm324x9i_lcd.o(i.BSP_LCD_SetTextColor) for BSP_LCD_SetTextColor
    stm324x9i_lcd.o(i.BSP_LCD_ClearStringLine) refers to stm324x9i_lcd.o(.data) for .data
    stm324x9i_lcd.o(i.BSP_LCD_ClearStringLine) refers to stm324x9i_lcd.o(.bss) for .bss
    stm324x9i_lcd.o(i.BSP_LCD_ClockConfig) refers to stm32f4xx_hal_rcc_ex.o(i.HAL_RCCEx_PeriphCLKConfig) for HAL_RCCEx_PeriphCLKConfig
    stm324x9i_lcd.o(i.BSP_LCD_ClockConfig) refers to stm324x9i_lcd.o(.bss) for .bss
    stm324x9i_lcd.o(i.BSP_LCD_DeInit) refers to stm32f4xx_hal_ltdc.o(i.HAL_LTDC_DeInit) for HAL_LTDC_DeInit
    stm324x9i_lcd.o(i.BSP_LCD_DeInit) refers to stm324x9i_lcd.o(i.BSP_LCD_MspDeInit) for BSP_LCD_MspDeInit
    stm324x9i_lcd.o(i.BSP_LCD_DeInit) refers to ltdc.o(.bss) for hltdc
    stm324x9i_lcd.o(i.BSP_LCD_DisplayChar) refers to stm324x9i_lcd.o(i.DrawChar) for DrawChar
    stm324x9i_lcd.o(i.BSP_LCD_DisplayChar) refers to stm324x9i_lcd.o(.data) for .data
    stm324x9i_lcd.o(i.BSP_LCD_DisplayChar) refers to stm324x9i_lcd.o(.bss) for .bss
    stm324x9i_lcd.o(i.BSP_LCD_DisplayOff) refers to stm32f4xx_hal_gpio.o(i.HAL_GPIO_WritePin) for HAL_GPIO_WritePin
    stm324x9i_lcd.o(i.BSP_LCD_DisplayOff) refers to ltdc.o(.bss) for hltdc
    stm324x9i_lcd.o(i.BSP_LCD_DisplayOn) refers to stm32f4xx_hal_gpio.o(i.HAL_GPIO_WritePin) for HAL_GPIO_WritePin
    stm324x9i_lcd.o(i.BSP_LCD_DisplayOn) refers to ltdc.o(.bss) for hltdc
    stm324x9i_lcd.o(i.BSP_LCD_DisplayStringAt) refers to stm324x9i_lcd.o(i.BSP_LCD_GetXSize) for BSP_LCD_GetXSize
    stm324x9i_lcd.o(i.BSP_LCD_DisplayStringAt) refers to stm324x9i_lcd.o(i.BSP_LCD_DisplayChar) for BSP_LCD_DisplayChar
    stm324x9i_lcd.o(i.BSP_LCD_DisplayStringAt) refers to stm324x9i_lcd.o(.data) for .data
    stm324x9i_lcd.o(i.BSP_LCD_DisplayStringAt) refers to stm324x9i_lcd.o(.bss) for .bss
    stm324x9i_lcd.o(i.BSP_LCD_DisplayStringAtLine) refers to stm324x9i_lcd.o(i.BSP_LCD_GetFont) for BSP_LCD_GetFont
    stm324x9i_lcd.o(i.BSP_LCD_DisplayStringAtLine) refers to stm324x9i_lcd.o(i.BSP_LCD_DisplayStringAt) for BSP_LCD_DisplayStringAt
    stm324x9i_lcd.o(i.BSP_LCD_DrawBitmap) refers to stm324x9i_lcd.o(i.BSP_LCD_GetXSize) for BSP_LCD_GetXSize
    stm324x9i_lcd.o(i.BSP_LCD_DrawBitmap) refers to stm324x9i_lcd.o(i.LL_ConvertLineToARGB8888) for LL_ConvertLineToARGB8888
    stm324x9i_lcd.o(i.BSP_LCD_DrawBitmap) refers to stm324x9i_lcd.o(.data) for .data
    stm324x9i_lcd.o(i.BSP_LCD_DrawBitmap) refers to ltdc.o(.bss) for hltdc
    stm324x9i_lcd.o(i.BSP_LCD_DrawCircle) refers to stm324x9i_lcd.o(i.BSP_LCD_DrawPixel) for BSP_LCD_DrawPixel
    stm324x9i_lcd.o(i.BSP_LCD_DrawCircle) refers to stm324x9i_lcd.o(.data) for .data
    stm324x9i_lcd.o(i.BSP_LCD_DrawCircle) refers to stm324x9i_lcd.o(.bss) for .bss
    stm324x9i_lcd.o(i.BSP_LCD_DrawEllipse) refers to stm324x9i_lcd.o(i.BSP_LCD_DrawPixel) for BSP_LCD_DrawPixel
    stm324x9i_lcd.o(i.BSP_LCD_DrawEllipse) refers to stm324x9i_lcd.o(.data) for .data
    stm324x9i_lcd.o(i.BSP_LCD_DrawEllipse) refers to stm324x9i_lcd.o(.bss) for .bss
    stm324x9i_lcd.o(i.BSP_LCD_DrawHLine) refers to stm324x9i_lcd.o(i.BSP_LCD_GetXSize) for BSP_LCD_GetXSize
    stm324x9i_lcd.o(i.BSP_LCD_DrawHLine) refers to stm324x9i_lcd.o(i.LL_FillBuffer) for LL_FillBuffer
    stm324x9i_lcd.o(i.BSP_LCD_DrawHLine) refers to stm324x9i_lcd.o(.data) for .data
    stm324x9i_lcd.o(i.BSP_LCD_DrawHLine) refers to ltdc.o(.bss) for hltdc
    stm324x9i_lcd.o(i.BSP_LCD_DrawHLine) refers to stm324x9i_lcd.o(.bss) for .bss
    stm324x9i_lcd.o(i.BSP_LCD_DrawLine) refers to stm324x9i_lcd.o(i.BSP_LCD_DrawPixel) for BSP_LCD_DrawPixel
    stm324x9i_lcd.o(i.BSP_LCD_DrawLine) refers to stm324x9i_lcd.o(.data) for .data
    stm324x9i_lcd.o(i.BSP_LCD_DrawLine) refers to stm324x9i_lcd.o(.bss) for .bss
    stm324x9i_lcd.o(i.BSP_LCD_DrawPixel) refers to stm324x9i_lcd.o(i.BSP_LCD_GetXSize) for BSP_LCD_GetXSize
    stm324x9i_lcd.o(i.BSP_LCD_DrawPixel) refers to stm324x9i_lcd.o(.data) for .data
    stm324x9i_lcd.o(i.BSP_LCD_DrawPixel) refers to ltdc.o(.bss) for hltdc
    stm324x9i_lcd.o(i.BSP_LCD_DrawPolygon) refers to stm324x9i_lcd.o(i.BSP_LCD_DrawLine) for BSP_LCD_DrawLine
    stm324x9i_lcd.o(i.BSP_LCD_DrawRect) refers to stm324x9i_lcd.o(i.BSP_LCD_DrawHLine) for BSP_LCD_DrawHLine
    stm324x9i_lcd.o(i.BSP_LCD_DrawRect) refers to stm324x9i_lcd.o(i.BSP_LCD_DrawVLine) for BSP_LCD_DrawVLine
    stm324x9i_lcd.o(i.BSP_LCD_DrawVLine) refers to stm324x9i_lcd.o(i.BSP_LCD_GetXSize) for BSP_LCD_GetXSize
    stm324x9i_lcd.o(i.BSP_LCD_DrawVLine) refers to stm324x9i_lcd.o(i.LL_FillBuffer) for LL_FillBuffer
    stm324x9i_lcd.o(i.BSP_LCD_DrawVLine) refers to stm324x9i_lcd.o(.data) for .data
    stm324x9i_lcd.o(i.BSP_LCD_DrawVLine) refers to ltdc.o(.bss) for hltdc
    stm324x9i_lcd.o(i.BSP_LCD_DrawVLine) refers to stm324x9i_lcd.o(.bss) for .bss
    stm324x9i_lcd.o(i.BSP_LCD_FillCircle) refers to stm324x9i_lcd.o(i.BSP_LCD_SetTextColor) for BSP_LCD_SetTextColor
    stm324x9i_lcd.o(i.BSP_LCD_FillCircle) refers to stm324x9i_lcd.o(i.BSP_LCD_DrawHLine) for BSP_LCD_DrawHLine
    stm324x9i_lcd.o(i.BSP_LCD_FillCircle) refers to stm324x9i_lcd.o(i.BSP_LCD_DrawCircle) for BSP_LCD_DrawCircle
    stm324x9i_lcd.o(i.BSP_LCD_FillCircle) refers to stm324x9i_lcd.o(.data) for .data
    stm324x9i_lcd.o(i.BSP_LCD_FillCircle) refers to stm324x9i_lcd.o(.bss) for .bss
    stm324x9i_lcd.o(i.BSP_LCD_FillEllipse) refers to stm324x9i_lcd.o(i.BSP_LCD_DrawHLine) for BSP_LCD_DrawHLine
    stm324x9i_lcd.o(i.BSP_LCD_FillPolygon) refers to stm324x9i_lcd.o(i.FillTriangle) for FillTriangle
    stm324x9i_lcd.o(i.BSP_LCD_FillRect) refers to stm324x9i_lcd.o(i.BSP_LCD_SetTextColor) for BSP_LCD_SetTextColor
    stm324x9i_lcd.o(i.BSP_LCD_FillRect) refers to stm324x9i_lcd.o(i.BSP_LCD_GetXSize) for BSP_LCD_GetXSize
    stm324x9i_lcd.o(i.BSP_LCD_FillRect) refers to stm324x9i_lcd.o(i.LL_FillBuffer) for LL_FillBuffer
    stm324x9i_lcd.o(i.BSP_LCD_FillRect) refers to stm324x9i_lcd.o(.data) for .data
    stm324x9i_lcd.o(i.BSP_LCD_FillRect) refers to stm324x9i_lcd.o(.bss) for .bss
    stm324x9i_lcd.o(i.BSP_LCD_FillRect) refers to ltdc.o(.bss) for hltdc
    stm324x9i_lcd.o(i.BSP_LCD_GetBackColor) refers to stm324x9i_lcd.o(.data) for .data
    stm324x9i_lcd.o(i.BSP_LCD_GetBackColor) refers to stm324x9i_lcd.o(.bss) for .bss
    stm324x9i_lcd.o(i.BSP_LCD_GetFont) refers to stm324x9i_lcd.o(.data) for .data
    stm324x9i_lcd.o(i.BSP_LCD_GetFont) refers to stm324x9i_lcd.o(.bss) for .bss
    stm324x9i_lcd.o(i.BSP_LCD_GetTextColor) refers to stm324x9i_lcd.o(.data) for .data
    stm324x9i_lcd.o(i.BSP_LCD_GetTextColor) refers to stm324x9i_lcd.o(.bss) for .bss
    stm324x9i_lcd.o(i.BSP_LCD_GetXSize) refers to stm324x9i_lcd.o(.data) for .data
    stm324x9i_lcd.o(i.BSP_LCD_GetXSize) refers to ltdc.o(.bss) for hltdc
    stm324x9i_lcd.o(i.BSP_LCD_GetYSize) refers to stm324x9i_lcd.o(.data) for .data
    stm324x9i_lcd.o(i.BSP_LCD_GetYSize) refers to ltdc.o(.bss) for hltdc
    stm324x9i_lcd.o(i.BSP_LCD_Init) refers to stm324x9i_sdram.o(i.BSP_SDRAM_Init) for BSP_SDRAM_Init
    stm324x9i_lcd.o(i.BSP_LCD_Init) refers to stm324x9i_lcd.o(i.BSP_LCD_SetFont) for BSP_LCD_SetFont
    stm324x9i_lcd.o(i.BSP_LCD_Init) refers to stm324x9i_lcd.o(i.BSP_LCD_SetBackColor) for BSP_LCD_SetBackColor
    stm324x9i_lcd.o(i.BSP_LCD_Init) refers to stm324x9i_lcd.o(i.BSP_LCD_SetTextColor) for BSP_LCD_SetTextColor
    stm324x9i_lcd.o(i.BSP_LCD_Init) refers to stm324x9i_lcd.o(.data) for .data
    stm324x9i_lcd.o(i.BSP_LCD_LayerDefaultInit) refers to stm324x9i_lcd.o(i.BSP_LCD_GetXSize) for BSP_LCD_GetXSize
    stm324x9i_lcd.o(i.BSP_LCD_LayerDefaultInit) refers to stm324x9i_lcd.o(i.BSP_LCD_GetYSize) for BSP_LCD_GetYSize
    stm324x9i_lcd.o(i.BSP_LCD_LayerDefaultInit) refers to stm32f4xx_hal_ltdc.o(i.HAL_LTDC_ConfigLayer) for HAL_LTDC_ConfigLayer
    stm324x9i_lcd.o(i.BSP_LCD_LayerDefaultInit) refers to ltdc.o(.bss) for hltdc
    stm324x9i_lcd.o(i.BSP_LCD_LayerDefaultInit) refers to stm324x9i_lcd.o(.bss) for .bss
    stm324x9i_lcd.o(i.BSP_LCD_LayerDefaultInit) refers to stm324x9i_lcd.o(.data) for .data
    stm324x9i_lcd.o(i.BSP_LCD_LayerRgb565Init) refers to stm324x9i_lcd.o(i.BSP_LCD_GetXSize) for BSP_LCD_GetXSize
    stm324x9i_lcd.o(i.BSP_LCD_LayerRgb565Init) refers to stm324x9i_lcd.o(i.BSP_LCD_GetYSize) for BSP_LCD_GetYSize
    stm324x9i_lcd.o(i.BSP_LCD_LayerRgb565Init) refers to stm32f4xx_hal_ltdc.o(i.HAL_LTDC_ConfigLayer) for HAL_LTDC_ConfigLayer
    stm324x9i_lcd.o(i.BSP_LCD_LayerRgb565Init) refers to ltdc.o(.bss) for hltdc
    stm324x9i_lcd.o(i.BSP_LCD_LayerRgb565Init) refers to stm324x9i_lcd.o(.bss) for .bss
    stm324x9i_lcd.o(i.BSP_LCD_LayerRgb565Init) refers to stm324x9i_lcd.o(.data) for .data
    stm324x9i_lcd.o(i.BSP_LCD_MspDeInit) refers to stm32f4xx_hal_gpio.o(i.HAL_GPIO_DeInit) for HAL_GPIO_DeInit
    stm324x9i_lcd.o(i.BSP_LCD_MspInit) refers to stm32f4xx_hal_gpio.o(i.HAL_GPIO_Init) for HAL_GPIO_Init
    stm324x9i_lcd.o(i.BSP_LCD_MspInit) refers to stm32f4xx_hal_gpio.o(i.HAL_GPIO_WritePin) for HAL_GPIO_WritePin
    stm324x9i_lcd.o(i.BSP_LCD_ReadPixel) refers to stm324x9i_lcd.o(i.BSP_LCD_GetXSize) for BSP_LCD_GetXSize
    stm324x9i_lcd.o(i.BSP_LCD_ReadPixel) refers to stm324x9i_lcd.o(.data) for .data
    stm324x9i_lcd.o(i.BSP_LCD_ReadPixel) refers to ltdc.o(.bss) for hltdc
    stm324x9i_lcd.o(i.BSP_LCD_ResetColorKeying) refers to stm32f4xx_hal_ltdc.o(i.HAL_LTDC_DisableColorKeying) for HAL_LTDC_DisableColorKeying
    stm324x9i_lcd.o(i.BSP_LCD_ResetColorKeying) refers to ltdc.o(.bss) for hltdc
    stm324x9i_lcd.o(i.BSP_LCD_SelectLayer) refers to stm324x9i_lcd.o(.data) for .data
    stm324x9i_lcd.o(i.BSP_LCD_SetBackColor) refers to stm324x9i_lcd.o(.data) for .data
    stm324x9i_lcd.o(i.BSP_LCD_SetBackColor) refers to stm324x9i_lcd.o(.bss) for .bss
    stm324x9i_lcd.o(i.BSP_LCD_SetColorKeying) refers to stm32f4xx_hal_ltdc.o(i.HAL_LTDC_ConfigColorKeying) for HAL_LTDC_ConfigColorKeying
    stm324x9i_lcd.o(i.BSP_LCD_SetColorKeying) refers to stm32f4xx_hal_ltdc.o(i.HAL_LTDC_EnableColorKeying) for HAL_LTDC_EnableColorKeying
    stm324x9i_lcd.o(i.BSP_LCD_SetColorKeying) refers to ltdc.o(.bss) for hltdc
    stm324x9i_lcd.o(i.BSP_LCD_SetFont) refers to stm324x9i_lcd.o(.data) for .data
    stm324x9i_lcd.o(i.BSP_LCD_SetFont) refers to stm324x9i_lcd.o(.bss) for .bss
    stm324x9i_lcd.o(i.BSP_LCD_SetLayerAddress) refers to stm32f4xx_hal_ltdc.o(i.HAL_LTDC_SetAddress) for HAL_LTDC_SetAddress
    stm324x9i_lcd.o(i.BSP_LCD_SetLayerAddress) refers to ltdc.o(.bss) for hltdc
    stm324x9i_lcd.o(i.BSP_LCD_SetLayerVisible) refers to ltdc.o(.bss) for hltdc
    stm324x9i_lcd.o(i.BSP_LCD_SetLayerWindow) refers to stm32f4xx_hal_ltdc.o(i.HAL_LTDC_SetWindowSize) for HAL_LTDC_SetWindowSize
    stm324x9i_lcd.o(i.BSP_LCD_SetLayerWindow) refers to stm32f4xx_hal_ltdc.o(i.HAL_LTDC_SetWindowPosition) for HAL_LTDC_SetWindowPosition
    stm324x9i_lcd.o(i.BSP_LCD_SetLayerWindow) refers to ltdc.o(.bss) for hltdc
    stm324x9i_lcd.o(i.BSP_LCD_SetTextColor) refers to stm324x9i_lcd.o(.data) for .data
    stm324x9i_lcd.o(i.BSP_LCD_SetTextColor) refers to stm324x9i_lcd.o(.bss) for .bss
    stm324x9i_lcd.o(i.BSP_LCD_SetTransparency) refers to stm32f4xx_hal_ltdc.o(i.HAL_LTDC_SetAlpha) for HAL_LTDC_SetAlpha
    stm324x9i_lcd.o(i.BSP_LCD_SetTransparency) refers to ltdc.o(.bss) for hltdc
    stm324x9i_lcd.o(i.BSP_LCD_SetXSize) refers to stm324x9i_lcd.o(.data) for .data
    stm324x9i_lcd.o(i.BSP_LCD_SetXSize) refers to ltdc.o(.bss) for hltdc
    stm324x9i_lcd.o(i.BSP_LCD_SetYSize) refers to stm324x9i_lcd.o(.data) for .data
    stm324x9i_lcd.o(i.BSP_LCD_SetYSize) refers to ltdc.o(.bss) for hltdc
    stm324x9i_lcd.o(i.DrawChar) refers to stm324x9i_lcd.o(i.BSP_LCD_DrawPixel) for BSP_LCD_DrawPixel
    stm324x9i_lcd.o(i.DrawChar) refers to stm324x9i_lcd.o(.data) for .data
    stm324x9i_lcd.o(i.DrawChar) refers to stm324x9i_lcd.o(.bss) for .bss
    stm324x9i_lcd.o(i.FillTriangle) refers to stm324x9i_lcd.o(i.BSP_LCD_DrawLine) for BSP_LCD_DrawLine
    stm324x9i_lcd.o(i.LL_ConvertLineToARGB8888) refers to stm32f4xx_hal_dma2d.o(i.HAL_DMA2D_Init) for HAL_DMA2D_Init
    stm324x9i_lcd.o(i.LL_ConvertLineToARGB8888) refers to stm32f4xx_hal_dma2d.o(i.HAL_DMA2D_ConfigLayer) for HAL_DMA2D_ConfigLayer
    stm324x9i_lcd.o(i.LL_ConvertLineToARGB8888) refers to stm32f4xx_hal_dma2d.o(i.HAL_DMA2D_Start) for HAL_DMA2D_Start
    stm324x9i_lcd.o(i.LL_ConvertLineToARGB8888) refers to stm32f4xx_hal_dma2d.o(i.HAL_DMA2D_PollForTransfer) for HAL_DMA2D_PollForTransfer
    stm324x9i_lcd.o(i.LL_ConvertLineToARGB8888) refers to dma2d.o(.bss) for hdma2d
    stm324x9i_lcd.o(i.LL_FillBuffer) refers to stm32f4xx_hal_dma2d.o(i.HAL_DMA2D_Init) for HAL_DMA2D_Init
    stm324x9i_lcd.o(i.LL_FillBuffer) refers to stm32f4xx_hal_dma2d.o(i.HAL_DMA2D_ConfigLayer) for HAL_DMA2D_ConfigLayer
    stm324x9i_lcd.o(i.LL_FillBuffer) refers to stm32f4xx_hal_dma2d.o(i.HAL_DMA2D_Start) for HAL_DMA2D_Start
    stm324x9i_lcd.o(i.LL_FillBuffer) refers to stm32f4xx_hal_dma2d.o(i.HAL_DMA2D_PollForTransfer) for HAL_DMA2D_PollForTransfer
    stm324x9i_lcd.o(i.LL_FillBuffer) refers to dma2d.o(.bss) for hdma2d
    stm324x9i_lcd.o(i.LL_FillBuffer) refers to stm324x9i_lcd.o(.data) for .data
    stm324x9i_lcd.o(i.LL_FillBuffer) refers to ltdc.o(.bss) for hltdc
    stm324x9i_lcd.o(.data) refers to stm324x9i_lcd.o(.constdata) for Font24_Table
    stm324x9i_lcd.o(.data) refers to stm324x9i_lcd.o(.constdata) for Font20_Table
    stm324x9i_lcd.o(.data) refers to stm324x9i_lcd.o(.constdata) for Font16_Table
    stm324x9i_lcd.o(.data) refers to stm324x9i_lcd.o(.constdata) for Font12_Table
    stm324x9i_lcd.o(.data) refers to stm324x9i_lcd.o(.constdata) for Font8_Table
    stm324x9i_sdram.o(i.BSP_SDRAM_DMA_IRQHandler) refers to stm32f4xx_hal_dma.o(i.HAL_DMA_IRQHandler) for HAL_DMA_IRQHandler
    stm324x9i_sdram.o(i.BSP_SDRAM_DMA_IRQHandler) refers to fmc.o(.bss) for hsdram1
    stm324x9i_sdram.o(i.BSP_SDRAM_Init) refers to stm324x9i_sdram.o(i.BSP_SDRAM_Initialization_sequence) for BSP_SDRAM_Initialization_sequence
    stm324x9i_sdram.o(i.BSP_SDRAM_Init) refers to stm324x9i_sdram.o(.data) for .data
    stm324x9i_sdram.o(i.BSP_SDRAM_Initialization_sequence) refers to stm32f4xx_hal_sdram.o(i.HAL_SDRAM_SendCommand) for HAL_SDRAM_SendCommand
    stm324x9i_sdram.o(i.BSP_SDRAM_Initialization_sequence) refers to stm32f4xx_hal.o(i.HAL_Delay) for HAL_Delay
    stm324x9i_sdram.o(i.BSP_SDRAM_Initialization_sequence) refers to stm32f4xx_hal_sdram.o(i.HAL_SDRAM_ProgramRefreshRate) for HAL_SDRAM_ProgramRefreshRate
    stm324x9i_sdram.o(i.BSP_SDRAM_Initialization_sequence) refers to stm324x9i_sdram.o(.bss) for .bss
    stm324x9i_sdram.o(i.BSP_SDRAM_Initialization_sequence) refers to fmc.o(.bss) for hsdram1
    stm324x9i_sdram.o(i.BSP_SDRAM_ReadData) refers to stm32f4xx_hal_sdram.o(i.HAL_SDRAM_Read_32b) for HAL_SDRAM_Read_32b
    stm324x9i_sdram.o(i.BSP_SDRAM_ReadData) refers to fmc.o(.bss) for hsdram1
    stm324x9i_sdram.o(i.BSP_SDRAM_ReadData_DMA) refers to stm32f4xx_hal_sdram.o(i.HAL_SDRAM_Read_DMA) for HAL_SDRAM_Read_DMA
    stm324x9i_sdram.o(i.BSP_SDRAM_ReadData_DMA) refers to fmc.o(.bss) for hsdram1
    stm324x9i_sdram.o(i.BSP_SDRAM_Sendcmd) refers to stm32f4xx_hal_sdram.o(i.HAL_SDRAM_SendCommand) for HAL_SDRAM_SendCommand
    stm324x9i_sdram.o(i.BSP_SDRAM_Sendcmd) refers to fmc.o(.bss) for hsdram1
    stm324x9i_sdram.o(i.BSP_SDRAM_WriteData) refers to stm32f4xx_hal_sdram.o(i.HAL_SDRAM_Write_32b) for HAL_SDRAM_Write_32b
    stm324x9i_sdram.o(i.BSP_SDRAM_WriteData) refers to fmc.o(.bss) for hsdram1
    stm324x9i_sdram.o(i.BSP_SDRAM_WriteData_DMA) refers to stm32f4xx_hal_sdram.o(i.HAL_SDRAM_Write_DMA) for HAL_SDRAM_Write_DMA
    stm324x9i_sdram.o(i.BSP_SDRAM_WriteData_DMA) refers to fmc.o(.bss) for hsdram1
    lcd_log.o(i.LCD_LOG_ClearTextZone) refers to stm324x9i_lcd.o(i.BSP_LCD_ClearStringLine) for BSP_LCD_ClearStringLine
    lcd_log.o(i.LCD_LOG_ClearTextZone) refers to lcd_log.o(i.LCD_LOG_DeInit) for LCD_LOG_DeInit
    lcd_log.o(i.LCD_LOG_DeInit) refers to lcd_log.o(.data) for .data
    lcd_log.o(i.LCD_LOG_Init) refers to lcd_log.o(i.LCD_LOG_DeInit) for LCD_LOG_DeInit
    lcd_log.o(i.LCD_LOG_Init) refers to stm324x9i_lcd.o(i.BSP_LCD_Clear) for BSP_LCD_Clear
    lcd_log.o(i.LCD_LOG_ScrollBack) refers to lcd_log.o(i.LCD_LOG_UpdateDisplay) for LCD_LOG_UpdateDisplay
    lcd_log.o(i.LCD_LOG_ScrollBack) refers to lcd_log.o(.data) for .data
    lcd_log.o(i.LCD_LOG_ScrollForward) refers to lcd_log.o(i.LCD_LOG_UpdateDisplay) for LCD_LOG_UpdateDisplay
    lcd_log.o(i.LCD_LOG_ScrollForward) refers to lcd_log.o(.data) for .data
    lcd_log.o(i.LCD_LOG_SetFooter) refers to stm324x9i_lcd.o(i.BSP_LCD_SetFont) for BSP_LCD_SetFont
    lcd_log.o(i.LCD_LOG_SetFooter) refers to stm324x9i_lcd.o(i.BSP_LCD_SetTextColor) for BSP_LCD_SetTextColor
    lcd_log.o(i.LCD_LOG_SetFooter) refers to stm324x9i_lcd.o(i.BSP_LCD_GetXSize) for BSP_LCD_GetXSize
    lcd_log.o(i.LCD_LOG_SetFooter) refers to stm324x9i_lcd.o(i.BSP_LCD_GetYSize) for BSP_LCD_GetYSize
    lcd_log.o(i.LCD_LOG_SetFooter) refers to stm324x9i_lcd.o(i.BSP_LCD_FillRect) for BSP_LCD_FillRect
    lcd_log.o(i.LCD_LOG_SetFooter) refers to stm324x9i_lcd.o(i.BSP_LCD_SetBackColor) for BSP_LCD_SetBackColor
    lcd_log.o(i.LCD_LOG_SetFooter) refers to stm324x9i_lcd.o(i.BSP_LCD_DisplayStringAt) for BSP_LCD_DisplayStringAt
    lcd_log.o(i.LCD_LOG_SetFooter) refers to stm324x9i_lcd.o(.data) for Font20
    lcd_log.o(i.LCD_LOG_SetFooter) refers to stm324x9i_lcd.o(.data) for Font16
    lcd_log.o(i.LCD_LOG_SetHeader) refers to stm324x9i_lcd.o(i.BSP_LCD_SetFont) for BSP_LCD_SetFont
    lcd_log.o(i.LCD_LOG_SetHeader) refers to stm324x9i_lcd.o(i.BSP_LCD_SetTextColor) for BSP_LCD_SetTextColor
    lcd_log.o(i.LCD_LOG_SetHeader) refers to stm324x9i_lcd.o(i.BSP_LCD_GetXSize) for BSP_LCD_GetXSize
    lcd_log.o(i.LCD_LOG_SetHeader) refers to stm324x9i_lcd.o(i.BSP_LCD_FillRect) for BSP_LCD_FillRect
    lcd_log.o(i.LCD_LOG_SetHeader) refers to stm324x9i_lcd.o(i.BSP_LCD_SetBackColor) for BSP_LCD_SetBackColor
    lcd_log.o(i.LCD_LOG_SetHeader) refers to stm324x9i_lcd.o(i.BSP_LCD_DisplayStringAt) for BSP_LCD_DisplayStringAt
    lcd_log.o(i.LCD_LOG_SetHeader) refers to stm324x9i_lcd.o(.data) for Font20
    lcd_log.o(i.LCD_LOG_SetHeader) refers to stm324x9i_lcd.o(.data) for Font16
    lcd_log.o(i.LCD_LOG_UpdateDisplay) refers to stm324x9i_lcd.o(i.BSP_LCD_SetTextColor) for BSP_LCD_SetTextColor
    lcd_log.o(i.LCD_LOG_UpdateDisplay) refers to stm324x9i_lcd.o(i.BSP_LCD_DisplayStringAtLine) for BSP_LCD_DisplayStringAtLine
    lcd_log.o(i.LCD_LOG_UpdateDisplay) refers to lcd_log.o(.data) for .data
    lcd_log.o(i.LCD_LOG_UpdateDisplay) refers to lcd_log.o(.bss) for .bss
    lcd_log.o(i.fputc) refers to stm324x9i_lcd.o(i.BSP_LCD_GetFont) for BSP_LCD_GetFont
    lcd_log.o(i.fputc) refers to stm324x9i_lcd.o(i.BSP_LCD_GetXSize) for BSP_LCD_GetXSize
    lcd_log.o(i.fputc) refers to lcd_log.o(i.LCD_LOG_UpdateDisplay) for LCD_LOG_UpdateDisplay
    lcd_log.o(i.fputc) refers to lcd_log.o(.data) for .data
    lcd_log.o(i.fputc) refers to lcd_log.o(.bss) for .bss
    system_stm32f4xx.o(i.SystemCoreClockUpdate) refers to system_stm32f4xx.o(.data) for .data
    system_stm32f4xx.o(i.SystemCoreClockUpdate) refers to system_stm32f4xx.o(.constdata) for .constdata
    stm32f4xx_hal_pwr_ex.o(i.HAL_PWREx_ControlVoltageScaling) refers to stm32f4xx_hal.o(i.HAL_GetTick) for HAL_GetTick
    stm32f4xx_hal_pwr_ex.o(i.HAL_PWREx_DisableBkUpReg) refers to stm32f4xx_hal.o(i.HAL_GetTick) for HAL_GetTick
    stm32f4xx_hal_pwr_ex.o(i.HAL_PWREx_DisableOverDrive) refers to stm32f4xx_hal.o(i.HAL_GetTick) for HAL_GetTick
    stm32f4xx_hal_pwr_ex.o(i.HAL_PWREx_EnableBkUpReg) refers to stm32f4xx_hal.o(i.HAL_GetTick) for HAL_GetTick
    stm32f4xx_hal_pwr_ex.o(i.HAL_PWREx_EnableOverDrive) refers to stm32f4xx_hal.o(i.HAL_GetTick) for HAL_GetTick
    stm32f4xx_hal_pwr_ex.o(i.HAL_PWREx_EnterUnderDriveSTOPMode) refers to stm32f4xx_hal.o(i.HAL_GetTick) for HAL_GetTick
    stm32f4xx_hal_ltdc.o(i.HAL_LTDC_ConfigLayer) refers to stm32f4xx_hal_ltdc.o(i.LTDC_SetConfig) for LTDC_SetConfig
    stm32f4xx_hal_ltdc.o(i.HAL_LTDC_DeInit) refers to ltdc.o(i.HAL_LTDC_MspDeInit) for HAL_LTDC_MspDeInit
    stm32f4xx_hal_ltdc.o(i.HAL_LTDC_IRQHandler) refers to stm32f4xx_hal_ltdc.o(i.HAL_LTDC_ErrorCallback) for HAL_LTDC_ErrorCallback
    stm32f4xx_hal_ltdc.o(i.HAL_LTDC_IRQHandler) refers to stm32f4xx_hal_ltdc.o(i.HAL_LTDC_LineEventCallback) for HAL_LTDC_LineEventCallback
    stm32f4xx_hal_ltdc.o(i.HAL_LTDC_Init) refers to ltdc.o(i.HAL_LTDC_MspInit) for HAL_LTDC_MspInit
    stm32f4xx_hal_ltdc.o(i.HAL_LTDC_SetAddress) refers to stm32f4xx_hal_ltdc.o(i.LTDC_SetConfig) for LTDC_SetConfig
    stm32f4xx_hal_ltdc.o(i.HAL_LTDC_SetAlpha) refers to stm32f4xx_hal_ltdc.o(i.LTDC_SetConfig) for LTDC_SetConfig
    stm32f4xx_hal_ltdc.o(i.HAL_LTDC_SetPixelFormat) refers to stm32f4xx_hal_ltdc.o(i.LTDC_SetConfig) for LTDC_SetConfig
    stm32f4xx_hal_ltdc.o(i.HAL_LTDC_SetWindowPosition) refers to stm32f4xx_hal_ltdc.o(i.LTDC_SetConfig) for LTDC_SetConfig
    stm32f4xx_hal_ltdc.o(i.HAL_LTDC_SetWindowSize) refers to stm32f4xx_hal_ltdc.o(i.LTDC_SetConfig) for LTDC_SetConfig
    stm32f4xx_hal_dma.o(i.DMA_CalcBaseAndBitshift) refers to stm32f4xx_hal_dma.o(.constdata) for .constdata
    stm32f4xx_hal_dma.o(i.HAL_DMA_Abort) refers to stm32f4xx_hal.o(i.HAL_GetTick) for HAL_GetTick
    stm32f4xx_hal_dma.o(i.HAL_DMA_DeInit) refers to stm32f4xx_hal_dma.o(i.DMA_CalcBaseAndBitshift) for DMA_CalcBaseAndBitshift
    stm32f4xx_hal_dma.o(i.HAL_DMA_Init) refers to stm32f4xx_hal_dma.o(i.DMA_CalcBaseAndBitshift) for DMA_CalcBaseAndBitshift
    stm32f4xx_hal_dma.o(i.HAL_DMA_PollForTransfer) refers to stm32f4xx_hal.o(i.HAL_GetTick) for HAL_GetTick
    stm32f4xx_hal_dma.o(i.HAL_DMA_Start) refers to stm32f4xx_hal_dma.o(i.DMA_SetConfig) for DMA_SetConfig
    stm32f4xx_hal_dma.o(i.HAL_DMA_Start_IT) refers to stm32f4xx_hal_dma.o(i.DMA_SetConfig) for DMA_SetConfig
    stm32f4xx_hal_rcc_ex.o(i.HAL_RCCEx_PeriphCLKConfig) refers to stm32f4xx_hal.o(i.HAL_GetTick) for HAL_GetTick
    stm32f4xx_hal.o(i.HAL_DeInit) refers to stm32f4xx_hal.o(i.HAL_MspDeInit) for HAL_MspDeInit
    stm32f4xx_hal.o(i.HAL_Delay) refers to stm32f4xx_hal.o(i.HAL_GetTick) for HAL_GetTick
    stm32f4xx_hal.o(i.HAL_GetTick) refers to stm32f4xx_hal.o(.data) for .data
    stm32f4xx_hal.o(i.HAL_IncTick) refers to stm32f4xx_hal.o(.data) for .data
    stm32f4xx_hal.o(i.HAL_Init) refers to stm32f4xx_hal_cortex.o(i.HAL_NVIC_SetPriorityGrouping) for HAL_NVIC_SetPriorityGrouping
    stm32f4xx_hal.o(i.HAL_Init) refers to stm32f4xx_hal.o(i.HAL_InitTick) for HAL_InitTick
    stm32f4xx_hal.o(i.HAL_Init) refers to stm32f4xx_hal_msp.o(i.HAL_MspInit) for HAL_MspInit
    stm32f4xx_hal.o(i.HAL_InitTick) refers to stm32f4xx_hal_rcc.o(i.HAL_RCC_GetHCLKFreq) for HAL_RCC_GetHCLKFreq
    stm32f4xx_hal.o(i.HAL_InitTick) refers to stm32f4xx_hal_cortex.o(i.HAL_SYSTICK_Config) for HAL_SYSTICK_Config
    stm32f4xx_hal.o(i.HAL_InitTick) refers to stm32f4xx_hal_cortex.o(i.HAL_NVIC_SetPriority) for HAL_NVIC_SetPriority
    stm32f4xx_hal_cortex.o(i.HAL_SYSTICK_IRQHandler) refers to stm32f4xx_hal_cortex.o(i.HAL_SYSTICK_Callback) for HAL_SYSTICK_Callback
    stm32f4xx_hal_flash_ex.o(i.FLASH_OB_BootConfig) refers to stm32f4xx_hal_flash.o(i.FLASH_WaitForLastOperation) for FLASH_WaitForLastOperation
    stm32f4xx_hal_flash_ex.o(i.FLASH_OB_DisablePCROP) refers to stm32f4xx_hal_flash.o(i.FLASH_WaitForLastOperation) for FLASH_WaitForLastOperation
    stm32f4xx_hal_flash_ex.o(i.FLASH_OB_DisableWRP) refers to stm32f4xx_hal_flash.o(i.FLASH_WaitForLastOperation) for FLASH_WaitForLastOperation
    stm32f4xx_hal_flash_ex.o(i.FLASH_OB_EnablePCROP) refers to stm32f4xx_hal_flash.o(i.FLASH_WaitForLastOperation) for FLASH_WaitForLastOperation
    stm32f4xx_hal_flash_ex.o(i.FLASH_OB_EnableWRP) refers to stm32f4xx_hal_flash.o(i.FLASH_WaitForLastOperation) for FLASH_WaitForLastOperation
    stm32f4xx_hal_flash_ex.o(i.FLASH_OB_RDP_LevelConfig) refers to stm32f4xx_hal_flash.o(i.FLASH_WaitForLastOperation) for FLASH_WaitForLastOperation
    stm32f4xx_hal_flash_ex.o(i.FLASH_OB_UserConfig) refers to stm32f4xx_hal_flash.o(i.FLASH_WaitForLastOperation) for FLASH_WaitForLastOperation
    stm32f4xx_hal_flash_ex.o(i.HAL_FLASHEx_AdvOBProgram) refers to stm32f4xx_hal_flash_ex.o(i.FLASH_OB_DisablePCROP) for FLASH_OB_DisablePCROP
    stm32f4xx_hal_flash_ex.o(i.HAL_FLASHEx_AdvOBProgram) refers to stm32f4xx_hal_flash_ex.o(i.FLASH_OB_BootConfig) for FLASH_OB_BootConfig
    stm32f4xx_hal_flash_ex.o(i.HAL_FLASHEx_AdvOBProgram) refers to stm32f4xx_hal_flash_ex.o(i.FLASH_OB_EnablePCROP) for FLASH_OB_EnablePCROP
    stm32f4xx_hal_flash_ex.o(i.HAL_FLASHEx_Erase) refers to stm32f4xx_hal_flash.o(i.FLASH_WaitForLastOperation) for FLASH_WaitForLastOperation
    stm32f4xx_hal_flash_ex.o(i.HAL_FLASHEx_Erase) refers to stm32f4xx_hal_flash_ex.o(i.FLASH_Erase_Sector) for FLASH_Erase_Sector
    stm32f4xx_hal_flash_ex.o(i.HAL_FLASHEx_Erase) refers to stm32f4xx_hal_flash_ex.o(i.FLASH_MassErase) for FLASH_MassErase
    stm32f4xx_hal_flash_ex.o(i.HAL_FLASHEx_Erase) refers to stm32f4xx_hal_flash_ex.o(i.FLASH_FlushCaches) for FLASH_FlushCaches
    stm32f4xx_hal_flash_ex.o(i.HAL_FLASHEx_Erase) refers to stm32f4xx_hal_flash.o(.bss) for pFlash
    stm32f4xx_hal_flash_ex.o(i.HAL_FLASHEx_Erase_IT) refers to stm32f4xx_hal_flash_ex.o(i.FLASH_Erase_Sector) for FLASH_Erase_Sector
    stm32f4xx_hal_flash_ex.o(i.HAL_FLASHEx_Erase_IT) refers to stm32f4xx_hal_flash_ex.o(i.FLASH_MassErase) for FLASH_MassErase
    stm32f4xx_hal_flash_ex.o(i.HAL_FLASHEx_Erase_IT) refers to stm32f4xx_hal_flash.o(.bss) for pFlash
    stm32f4xx_hal_flash_ex.o(i.HAL_FLASHEx_OBGetConfig) refers to stm32f4xx_hal_flash_ex.o(i.FLASH_OB_GetWRP) for FLASH_OB_GetWRP
    stm32f4xx_hal_flash_ex.o(i.HAL_FLASHEx_OBGetConfig) refers to stm32f4xx_hal_flash_ex.o(i.FLASH_OB_GetRDP) for FLASH_OB_GetRDP
    stm32f4xx_hal_flash_ex.o(i.HAL_FLASHEx_OBGetConfig) refers to stm32f4xx_hal_flash_ex.o(i.FLASH_OB_GetUser) for FLASH_OB_GetUser
    stm32f4xx_hal_flash_ex.o(i.HAL_FLASHEx_OBGetConfig) refers to stm32f4xx_hal_flash_ex.o(i.FLASH_OB_GetBOR) for FLASH_OB_GetBOR
    stm32f4xx_hal_flash_ex.o(i.HAL_FLASHEx_OBProgram) refers to stm32f4xx_hal_flash_ex.o(i.FLASH_OB_DisableWRP) for FLASH_OB_DisableWRP
    stm32f4xx_hal_flash_ex.o(i.HAL_FLASHEx_OBProgram) refers to stm32f4xx_hal_flash_ex.o(i.FLASH_OB_RDP_LevelConfig) for FLASH_OB_RDP_LevelConfig
    stm32f4xx_hal_flash_ex.o(i.HAL_FLASHEx_OBProgram) refers to stm32f4xx_hal_flash_ex.o(i.FLASH_OB_UserConfig) for FLASH_OB_UserConfig
    stm32f4xx_hal_flash_ex.o(i.HAL_FLASHEx_OBProgram) refers to stm32f4xx_hal_flash_ex.o(i.FLASH_OB_BOR_LevelConfig) for FLASH_OB_BOR_LevelConfig
    stm32f4xx_hal_flash_ex.o(i.HAL_FLASHEx_OBProgram) refers to stm32f4xx_hal_flash_ex.o(i.FLASH_OB_EnableWRP) for FLASH_OB_EnableWRP
    stm32f4xx_hal_flash_ex.o(i.HAL_FLASHEx_OBProgram) refers to stm32f4xx_hal_flash.o(.bss) for pFlash
    stm32f4xx_hal_rcc.o(i.HAL_RCC_ClockConfig) refers to stm32f4xx_hal.o(i.HAL_GetTick) for HAL_GetTick
    stm32f4xx_hal_rcc.o(i.HAL_RCC_ClockConfig) refers to stm32f4xx_hal.o(i.HAL_InitTick) for HAL_InitTick
    stm32f4xx_hal_rcc.o(i.HAL_RCC_GetHCLKFreq) refers to stm32f4xx_hal_rcc.o(i.HAL_RCC_GetSysClockFreq) for HAL_RCC_GetSysClockFreq
    stm32f4xx_hal_rcc.o(i.HAL_RCC_GetHCLKFreq) refers to stm32f4xx_hal_rcc.o(.constdata) for .constdata
    stm32f4xx_hal_rcc.o(i.HAL_RCC_GetHCLKFreq) refers to system_stm32f4xx.o(.data) for SystemCoreClock
    stm32f4xx_hal_rcc.o(i.HAL_RCC_GetPCLK1Freq) refers to stm32f4xx_hal_rcc.o(i.HAL_RCC_GetHCLKFreq) for HAL_RCC_GetHCLKFreq
    stm32f4xx_hal_rcc.o(i.HAL_RCC_GetPCLK1Freq) refers to stm32f4xx_hal_rcc.o(.constdata) for .constdata
    stm32f4xx_hal_rcc.o(i.HAL_RCC_GetPCLK2Freq) refers to stm32f4xx_hal_rcc.o(i.HAL_RCC_GetHCLKFreq) for HAL_RCC_GetHCLKFreq
    stm32f4xx_hal_rcc.o(i.HAL_RCC_GetPCLK2Freq) refers to stm32f4xx_hal_rcc.o(.constdata) for .constdata
    stm32f4xx_hal_rcc.o(i.HAL_RCC_MCOConfig) refers to stm32f4xx_hal_gpio.o(i.HAL_GPIO_Init) for HAL_GPIO_Init
    stm32f4xx_hal_rcc.o(i.HAL_RCC_NMI_IRQHandler) refers to stm32f4xx_hal_rcc.o(i.HAL_RCC_CSSCallback) for HAL_RCC_CSSCallback
    stm32f4xx_hal_rcc.o(i.HAL_RCC_OscConfig) refers to stm32f4xx_hal.o(i.HAL_GetTick) for HAL_GetTick
    stm32f4xx_hal_gpio.o(i.HAL_GPIO_EXTI_IRQHandler) refers to stm32f4xx_hal_gpio.o(i.HAL_GPIO_EXTI_Callback) for HAL_GPIO_EXTI_Callback
    stm32f4xx_hal_dma_ex.o(i.HAL_DMAEx_MultiBufferStart) refers to stm32f4xx_hal_dma_ex.o(i.DMA_MultiBufferSetConfig) for DMA_MultiBufferSetConfig
    stm32f4xx_hal_dma_ex.o(i.HAL_DMAEx_MultiBufferStart_IT) refers to stm32f4xx_hal_dma_ex.o(i.DMA_MultiBufferSetConfig) for DMA_MultiBufferSetConfig
    stm32f4xx_hal_pwr.o(i.HAL_PWR_PVD_IRQHandler) refers to stm32f4xx_hal_pwr.o(i.HAL_PWR_PVDCallback) for HAL_PWR_PVDCallback
    stm32f4xx_hal_flash.o(i.FLASH_SetErrorCode) refers to stm32f4xx_hal_flash.o(.bss) for .bss
    stm32f4xx_hal_flash.o(i.FLASH_WaitForLastOperation) refers to stm32f4xx_hal.o(i.HAL_GetTick) for HAL_GetTick
    stm32f4xx_hal_flash.o(i.FLASH_WaitForLastOperation) refers to stm32f4xx_hal_flash.o(i.FLASH_SetErrorCode) for FLASH_SetErrorCode
    stm32f4xx_hal_flash.o(i.FLASH_WaitForLastOperation) refers to stm32f4xx_hal_flash.o(.bss) for .bss
    stm32f4xx_hal_flash.o(i.HAL_FLASH_GetError) refers to stm32f4xx_hal_flash.o(.bss) for .bss
    stm32f4xx_hal_flash.o(i.HAL_FLASH_IRQHandler) refers to stm32f4xx_hal_flash.o(i.FLASH_SetErrorCode) for FLASH_SetErrorCode
    stm32f4xx_hal_flash.o(i.HAL_FLASH_IRQHandler) refers to stm32f4xx_hal_flash.o(i.HAL_FLASH_OperationErrorCallback) for HAL_FLASH_OperationErrorCallback
    stm32f4xx_hal_flash.o(i.HAL_FLASH_IRQHandler) refers to stm32f4xx_hal_flash.o(i.HAL_FLASH_EndOfOperationCallback) for HAL_FLASH_EndOfOperationCallback
    stm32f4xx_hal_flash.o(i.HAL_FLASH_IRQHandler) refers to stm32f4xx_hal_flash_ex.o(i.FLASH_Erase_Sector) for FLASH_Erase_Sector
    stm32f4xx_hal_flash.o(i.HAL_FLASH_IRQHandler) refers to stm32f4xx_hal_flash_ex.o(i.FLASH_FlushCaches) for FLASH_FlushCaches
    stm32f4xx_hal_flash.o(i.HAL_FLASH_IRQHandler) refers to stm32f4xx_hal_flash.o(.bss) for .bss
    stm32f4xx_hal_flash.o(i.HAL_FLASH_OB_Launch) refers to stm32f4xx_hal_flash.o(i.FLASH_WaitForLastOperation) for FLASH_WaitForLastOperation
    stm32f4xx_hal_flash.o(i.HAL_FLASH_Program) refers to stm32f4xx_hal_flash.o(i.FLASH_WaitForLastOperation) for FLASH_WaitForLastOperation
    stm32f4xx_hal_flash.o(i.HAL_FLASH_Program) refers to stm32f4xx_hal_flash.o(i.FLASH_Program_DoubleWord) for FLASH_Program_DoubleWord
    stm32f4xx_hal_flash.o(i.HAL_FLASH_Program) refers to stm32f4xx_hal_flash.o(i.FLASH_Program_Byte) for FLASH_Program_Byte
    stm32f4xx_hal_flash.o(i.HAL_FLASH_Program) refers to stm32f4xx_hal_flash.o(i.FLASH_Program_HalfWord) for FLASH_Program_HalfWord
    stm32f4xx_hal_flash.o(i.HAL_FLASH_Program) refers to stm32f4xx_hal_flash.o(i.FLASH_Program_Word) for FLASH_Program_Word
    stm32f4xx_hal_flash.o(i.HAL_FLASH_Program) refers to stm32f4xx_hal_flash.o(.bss) for .bss
    stm32f4xx_hal_flash.o(i.HAL_FLASH_Program_IT) refers to stm32f4xx_hal_flash.o(i.FLASH_Program_DoubleWord) for FLASH_Program_DoubleWord
    stm32f4xx_hal_flash.o(i.HAL_FLASH_Program_IT) refers to stm32f4xx_hal_flash.o(i.FLASH_Program_Byte) for FLASH_Program_Byte
    stm32f4xx_hal_flash.o(i.HAL_FLASH_Program_IT) refers to stm32f4xx_hal_flash.o(i.FLASH_Program_HalfWord) for FLASH_Program_HalfWord
    stm32f4xx_hal_flash.o(i.HAL_FLASH_Program_IT) refers to stm32f4xx_hal_flash.o(i.FLASH_Program_Word) for FLASH_Program_Word
    stm32f4xx_hal_flash.o(i.HAL_FLASH_Program_IT) refers to stm32f4xx_hal_flash.o(.bss) for .bss
    stm32f4xx_ll_fmc.o(i.FMC_NAND_GetECC) refers to stm32f4xx_hal.o(i.HAL_GetTick) for HAL_GetTick
    stm32f4xx_ll_fmc.o(i.FMC_SDRAM_SendCommand) refers to stm32f4xx_hal.o(i.HAL_GetTick) for HAL_GetTick
    stm32f4xx_hal_sdram.o(i.HAL_SDRAM_DeInit) refers to fmc.o(i.HAL_SDRAM_MspDeInit) for HAL_SDRAM_MspDeInit
    stm32f4xx_hal_sdram.o(i.HAL_SDRAM_DeInit) refers to stm32f4xx_ll_fmc.o(i.FMC_SDRAM_DeInit) for FMC_SDRAM_DeInit
    stm32f4xx_hal_sdram.o(i.HAL_SDRAM_GetModeStatus) refers to stm32f4xx_ll_fmc.o(i.FMC_SDRAM_GetModeStatus) for FMC_SDRAM_GetModeStatus
    stm32f4xx_hal_sdram.o(i.HAL_SDRAM_IRQHandler) refers to stm32f4xx_hal_sdram.o(i.HAL_SDRAM_RefreshErrorCallback) for HAL_SDRAM_RefreshErrorCallback
    stm32f4xx_hal_sdram.o(i.HAL_SDRAM_Init) refers to fmc.o(i.HAL_SDRAM_MspInit) for HAL_SDRAM_MspInit
    stm32f4xx_hal_sdram.o(i.HAL_SDRAM_Init) refers to stm32f4xx_ll_fmc.o(i.FMC_SDRAM_Init) for FMC_SDRAM_Init
    stm32f4xx_hal_sdram.o(i.HAL_SDRAM_Init) refers to stm32f4xx_ll_fmc.o(i.FMC_SDRAM_Timing_Init) for FMC_SDRAM_Timing_Init
    stm32f4xx_hal_sdram.o(i.HAL_SDRAM_ProgramRefreshRate) refers to stm32f4xx_ll_fmc.o(i.FMC_SDRAM_ProgramRefreshRate) for FMC_SDRAM_ProgramRefreshRate
    stm32f4xx_hal_sdram.o(i.HAL_SDRAM_Read_DMA) refers to stm32f4xx_hal_dma.o(i.HAL_DMA_Start_IT) for HAL_DMA_Start_IT
    stm32f4xx_hal_sdram.o(i.HAL_SDRAM_Read_DMA) refers to stm32f4xx_hal_sdram.o(i.HAL_SDRAM_DMA_XferCpltCallback) for HAL_SDRAM_DMA_XferCpltCallback
    stm32f4xx_hal_sdram.o(i.HAL_SDRAM_Read_DMA) refers to stm32f4xx_hal_sdram.o(i.HAL_SDRAM_DMA_XferErrorCallback) for HAL_SDRAM_DMA_XferErrorCallback
    stm32f4xx_hal_sdram.o(i.HAL_SDRAM_SendCommand) refers to stm32f4xx_ll_fmc.o(i.FMC_SDRAM_SendCommand) for FMC_SDRAM_SendCommand
    stm32f4xx_hal_sdram.o(i.HAL_SDRAM_SetAutoRefreshNumber) refers to stm32f4xx_ll_fmc.o(i.FMC_SDRAM_SetAutoRefreshNumber) for FMC_SDRAM_SetAutoRefreshNumber
    stm32f4xx_hal_sdram.o(i.HAL_SDRAM_WriteProtection_Disable) refers to stm32f4xx_ll_fmc.o(i.FMC_SDRAM_WriteProtection_Disable) for FMC_SDRAM_WriteProtection_Disable
    stm32f4xx_hal_sdram.o(i.HAL_SDRAM_WriteProtection_Enable) refers to stm32f4xx_ll_fmc.o(i.FMC_SDRAM_WriteProtection_Enable) for FMC_SDRAM_WriteProtection_Enable
    stm32f4xx_hal_sdram.o(i.HAL_SDRAM_Write_DMA) refers to stm32f4xx_hal_dma.o(i.HAL_DMA_Start_IT) for HAL_DMA_Start_IT
    stm32f4xx_hal_sdram.o(i.HAL_SDRAM_Write_DMA) refers to stm32f4xx_hal_sdram.o(i.HAL_SDRAM_DMA_XferCpltCallback) for HAL_SDRAM_DMA_XferCpltCallback
    stm32f4xx_hal_sdram.o(i.HAL_SDRAM_Write_DMA) refers to stm32f4xx_hal_sdram.o(i.HAL_SDRAM_DMA_XferErrorCallback) for HAL_SDRAM_DMA_XferErrorCallback
    stm32f4xx_hal_dma2d.o(i.HAL_DMA2D_Abort) refers to stm32f4xx_hal.o(i.HAL_GetTick) for HAL_GetTick
    stm32f4xx_hal_dma2d.o(i.HAL_DMA2D_BlendingStart) refers to stm32f4xx_hal_dma2d.o(i.DMA2D_SetConfig) for DMA2D_SetConfig
    stm32f4xx_hal_dma2d.o(i.HAL_DMA2D_BlendingStart_IT) refers to stm32f4xx_hal_dma2d.o(i.DMA2D_SetConfig) for DMA2D_SetConfig
    stm32f4xx_hal_dma2d.o(i.HAL_DMA2D_DeInit) refers to dma2d.o(i.HAL_DMA2D_MspDeInit) for HAL_DMA2D_MspDeInit
    stm32f4xx_hal_dma2d.o(i.HAL_DMA2D_Init) refers to dma2d.o(i.HAL_DMA2D_MspInit) for HAL_DMA2D_MspInit
    stm32f4xx_hal_dma2d.o(i.HAL_DMA2D_PollForTransfer) refers to stm32f4xx_hal.o(i.HAL_GetTick) for HAL_GetTick
    stm32f4xx_hal_dma2d.o(i.HAL_DMA2D_Start) refers to stm32f4xx_hal_dma2d.o(i.DMA2D_SetConfig) for DMA2D_SetConfig
    stm32f4xx_hal_dma2d.o(i.HAL_DMA2D_Start_IT) refers to stm32f4xx_hal_dma2d.o(i.DMA2D_SetConfig) for DMA2D_SetConfig
    stm32f4xx_hal_dma2d.o(i.HAL_DMA2D_Suspend) refers to stm32f4xx_hal.o(i.HAL_GetTick) for HAL_GetTick
    stm32f4xx_ll_usb.o(i.USB_ActivateDedicatedEndpoint) refers to stm32f4xx_ll_usb.o(.data) for .data
    stm32f4xx_ll_usb.o(i.USB_CoreInit) refers to stm32f4xx_ll_usb.o(i.USB_CoreReset) for USB_CoreReset
    stm32f4xx_ll_usb.o(i.USB_DevConnect) refers to stm32f4xx_hal.o(i.HAL_Delay) for HAL_Delay
    stm32f4xx_ll_usb.o(i.USB_DevDisconnect) refers to stm32f4xx_hal.o(i.HAL_Delay) for HAL_Delay
    stm32f4xx_ll_usb.o(i.USB_DevInit) refers to stm32f4xx_ll_usb.o(i.USB_SetDevSpeed) for USB_SetDevSpeed
    stm32f4xx_ll_usb.o(i.USB_DevInit) refers to stm32f4xx_ll_usb.o(i.USB_FlushTxFifo) for USB_FlushTxFifo
    stm32f4xx_ll_usb.o(i.USB_DevInit) refers to stm32f4xx_ll_usb.o(i.USB_FlushRxFifo) for USB_FlushRxFifo
    stm32f4xx_ll_usb.o(i.USB_EPStartXfer) refers to stm32f4xx_ll_usb.o(i.USB_WritePacket) for USB_WritePacket
    stm32f4xx_ll_usb.o(i.USB_HC_StartXfer) refers to stm32f4xx_ll_usb.o(i.USB_DoPing) for USB_DoPing
    stm32f4xx_ll_usb.o(i.USB_HC_StartXfer) refers to stm32f4xx_ll_usb.o(i.USB_WritePacket) for USB_WritePacket
    stm32f4xx_ll_usb.o(i.USB_HostInit) refers to stm32f4xx_ll_usb.o(i.USB_FlushTxFifo) for USB_FlushTxFifo
    stm32f4xx_ll_usb.o(i.USB_HostInit) refers to stm32f4xx_ll_usb.o(i.USB_FlushRxFifo) for USB_FlushRxFifo
    stm32f4xx_ll_usb.o(i.USB_HostInit) refers to stm32f4xx_ll_usb.o(i.USB_DriveVbus) for USB_DriveVbus
    stm32f4xx_ll_usb.o(i.USB_HostInit) refers to stm32f4xx_hal.o(i.HAL_Delay) for HAL_Delay
    stm32f4xx_ll_usb.o(i.USB_ResetPort) refers to stm32f4xx_hal.o(i.HAL_Delay) for HAL_Delay
    stm32f4xx_ll_usb.o(i.USB_SetCurrentMode) refers to stm32f4xx_hal.o(i.HAL_Delay) for HAL_Delay
    stm32f4xx_ll_usb.o(i.USB_StopDevice) refers to stm32f4xx_ll_usb.o(i.USB_FlushRxFifo) for USB_FlushRxFifo
    stm32f4xx_ll_usb.o(i.USB_StopDevice) refers to stm32f4xx_ll_usb.o(i.USB_FlushTxFifo) for USB_FlushTxFifo
    stm32f4xx_ll_usb.o(i.USB_StopHost) refers to stm32f4xx_ll_usb.o(i.USB_DisableGlobalInt) for USB_DisableGlobalInt
    stm32f4xx_ll_usb.o(i.USB_StopHost) refers to stm32f4xx_ll_usb.o(i.USB_FlushTxFifo) for USB_FlushTxFifo
    stm32f4xx_ll_usb.o(i.USB_StopHost) refers to stm32f4xx_ll_usb.o(i.USB_FlushRxFifo) for USB_FlushRxFifo
    stm32f4xx_ll_usb.o(i.USB_StopHost) refers to stm32f4xx_ll_usb.o(i.USB_EnableGlobalInt) for USB_EnableGlobalInt
    stm32f4xx_hal_pcd.o(i.HAL_PCD_DeInit) refers to stm32f4xx_hal_pcd.o(i.HAL_PCD_Stop) for HAL_PCD_Stop
    stm32f4xx_hal_pcd.o(i.HAL_PCD_DeInit) refers to usbd_conf.o(i.HAL_PCD_MspDeInit) for HAL_PCD_MspDeInit
    stm32f4xx_hal_pcd.o(i.HAL_PCD_DevConnect) refers to stm32f4xx_ll_usb.o(i.USB_DevConnect) for USB_DevConnect
    stm32f4xx_hal_pcd.o(i.HAL_PCD_DevDisconnect) refers to stm32f4xx_ll_usb.o(i.USB_DevDisconnect) for USB_DevDisconnect
    stm32f4xx_hal_pcd.o(i.HAL_PCD_EP_Close) refers to stm32f4xx_ll_usb.o(i.USB_DeactivateEndpoint) for USB_DeactivateEndpoint
    stm32f4xx_hal_pcd.o(i.HAL_PCD_EP_ClrStall) refers to stm32f4xx_ll_usb.o(i.USB_EPClearStall) for USB_EPClearStall
    stm32f4xx_hal_pcd.o(i.HAL_PCD_EP_Flush) refers to stm32f4xx_ll_usb.o(i.USB_FlushTxFifo) for USB_FlushTxFifo
    stm32f4xx_hal_pcd.o(i.HAL_PCD_EP_Flush) refers to stm32f4xx_ll_usb.o(i.USB_FlushRxFifo) for USB_FlushRxFifo
    stm32f4xx_hal_pcd.o(i.HAL_PCD_EP_Open) refers to stm32f4xx_ll_usb.o(i.USB_ActivateEndpoint) for USB_ActivateEndpoint
    stm32f4xx_hal_pcd.o(i.HAL_PCD_EP_Receive) refers to stm32f4xx_ll_usb.o(i.USB_EPStartXfer) for USB_EPStartXfer
    stm32f4xx_hal_pcd.o(i.HAL_PCD_EP_Receive) refers to stm32f4xx_ll_usb.o(i.USB_EP0StartXfer) for USB_EP0StartXfer
    stm32f4xx_hal_pcd.o(i.HAL_PCD_EP_SetStall) refers to stm32f4xx_ll_usb.o(i.USB_EPSetStall) for USB_EPSetStall
    stm32f4xx_hal_pcd.o(i.HAL_PCD_EP_SetStall) refers to stm32f4xx_ll_usb.o(i.USB_EP0_OutStart) for USB_EP0_OutStart
    stm32f4xx_hal_pcd.o(i.HAL_PCD_EP_Transmit) refers to stm32f4xx_ll_usb.o(i.USB_EPStartXfer) for USB_EPStartXfer
    stm32f4xx_hal_pcd.o(i.HAL_PCD_EP_Transmit) refers to stm32f4xx_ll_usb.o(i.USB_EP0StartXfer) for USB_EP0StartXfer
    stm32f4xx_hal_pcd.o(i.HAL_PCD_IRQHandler) refers to stm32f4xx_ll_usb.o(i.USB_GetMode) for USB_GetMode
    stm32f4xx_hal_pcd.o(i.HAL_PCD_IRQHandler) refers to stm32f4xx_ll_usb.o(i.USB_ReadInterrupts) for USB_ReadInterrupts
    stm32f4xx_hal_pcd.o(i.HAL_PCD_IRQHandler) refers to stm32f4xx_ll_usb.o(i.USB_ReadDevAllOutEpInterrupt) for USB_ReadDevAllOutEpInterrupt
    stm32f4xx_hal_pcd.o(i.HAL_PCD_IRQHandler) refers to stm32f4xx_ll_usb.o(i.USB_ReadDevOutEPInterrupt) for USB_ReadDevOutEPInterrupt
    stm32f4xx_hal_pcd.o(i.HAL_PCD_IRQHandler) refers to usbd_conf.o(i.HAL_PCD_DataOutStageCallback) for HAL_PCD_DataOutStageCallback
    stm32f4xx_hal_pcd.o(i.HAL_PCD_IRQHandler) refers to stm32f4xx_ll_usb.o(i.USB_EP0_OutStart) for USB_EP0_OutStart
    stm32f4xx_hal_pcd.o(i.HAL_PCD_IRQHandler) refers to usbd_conf.o(i.HAL_PCD_SetupStageCallback) for HAL_PCD_SetupStageCallback
    stm32f4xx_hal_pcd.o(i.HAL_PCD_IRQHandler) refers to stm32f4xx_ll_usb.o(i.USB_ReadDevAllInEpInterrupt) for USB_ReadDevAllInEpInterrupt
    stm32f4xx_hal_pcd.o(i.HAL_PCD_IRQHandler) refers to stm32f4xx_ll_usb.o(i.USB_ReadDevInEPInterrupt) for USB_ReadDevInEPInterrupt
    stm32f4xx_hal_pcd.o(i.HAL_PCD_IRQHandler) refers to usbd_conf.o(i.HAL_PCD_DataInStageCallback) for HAL_PCD_DataInStageCallback
    stm32f4xx_hal_pcd.o(i.HAL_PCD_IRQHandler) refers to stm32f4xx_hal_pcd.o(i.PCD_WriteEmptyTxFifo) for PCD_WriteEmptyTxFifo
    stm32f4xx_hal_pcd.o(i.HAL_PCD_IRQHandler) refers to usbd_conf.o(i.HAL_PCD_ResumeCallback) for HAL_PCD_ResumeCallback
    stm32f4xx_hal_pcd.o(i.HAL_PCD_IRQHandler) refers to usbd_conf.o(i.HAL_PCD_SuspendCallback) for HAL_PCD_SuspendCallback
    stm32f4xx_hal_pcd.o(i.HAL_PCD_IRQHandler) refers to stm32f4xx_ll_usb.o(i.USB_FlushTxFifo) for USB_FlushTxFifo
    stm32f4xx_hal_pcd.o(i.HAL_PCD_IRQHandler) refers to stm32f4xx_ll_usb.o(i.USB_ActivateSetup) for USB_ActivateSetup
    stm32f4xx_hal_pcd.o(i.HAL_PCD_IRQHandler) refers to stm32f4xx_ll_usb.o(i.USB_GetDevSpeed) for USB_GetDevSpeed
    stm32f4xx_hal_pcd.o(i.HAL_PCD_IRQHandler) refers to usbd_conf.o(i.HAL_PCD_ResetCallback) for HAL_PCD_ResetCallback
    stm32f4xx_hal_pcd.o(i.HAL_PCD_IRQHandler) refers to stm32f4xx_ll_usb.o(i.USB_ReadPacket) for USB_ReadPacket
    stm32f4xx_hal_pcd.o(i.HAL_PCD_IRQHandler) refers to usbd_conf.o(i.HAL_PCD_SOFCallback) for HAL_PCD_SOFCallback
    stm32f4xx_hal_pcd.o(i.HAL_PCD_IRQHandler) refers to usbd_conf.o(i.HAL_PCD_ISOINIncompleteCallback) for HAL_PCD_ISOINIncompleteCallback
    stm32f4xx_hal_pcd.o(i.HAL_PCD_IRQHandler) refers to usbd_conf.o(i.HAL_PCD_ISOOUTIncompleteCallback) for HAL_PCD_ISOOUTIncompleteCallback
    stm32f4xx_hal_pcd.o(i.HAL_PCD_IRQHandler) refers to usbd_conf.o(i.HAL_PCD_ConnectCallback) for HAL_PCD_ConnectCallback
    stm32f4xx_hal_pcd.o(i.HAL_PCD_IRQHandler) refers to usbd_conf.o(i.HAL_PCD_DisconnectCallback) for HAL_PCD_DisconnectCallback
    stm32f4xx_hal_pcd.o(i.HAL_PCD_Init) refers to usbd_conf.o(i.HAL_PCD_MspInit) for HAL_PCD_MspInit
    stm32f4xx_hal_pcd.o(i.HAL_PCD_Init) refers to stm32f4xx_ll_usb.o(i.USB_DisableGlobalInt) for USB_DisableGlobalInt
    stm32f4xx_hal_pcd.o(i.HAL_PCD_Init) refers to stm32f4xx_ll_usb.o(i.USB_CoreInit) for USB_CoreInit
    stm32f4xx_hal_pcd.o(i.HAL_PCD_Init) refers to stm32f4xx_ll_usb.o(i.USB_SetCurrentMode) for USB_SetCurrentMode
    stm32f4xx_hal_pcd.o(i.HAL_PCD_Init) refers to stm32f4xx_ll_usb.o(i.USB_DevInit) for USB_DevInit
    stm32f4xx_hal_pcd.o(i.HAL_PCD_Init) refers to stm32f4xx_ll_usb.o(i.USB_DevDisconnect) for USB_DevDisconnect
    stm32f4xx_hal_pcd.o(i.HAL_PCD_SetAddress) refers to stm32f4xx_ll_usb.o(i.USB_SetDevAddress) for USB_SetDevAddress
    stm32f4xx_hal_pcd.o(i.HAL_PCD_Start) refers to stm32f4xx_ll_usb.o(i.USB_DevConnect) for USB_DevConnect
    stm32f4xx_hal_pcd.o(i.HAL_PCD_Start) refers to stm32f4xx_ll_usb.o(i.USB_EnableGlobalInt) for USB_EnableGlobalInt
    stm32f4xx_hal_pcd.o(i.HAL_PCD_Stop) refers to stm32f4xx_ll_usb.o(i.USB_DisableGlobalInt) for USB_DisableGlobalInt
    stm32f4xx_hal_pcd.o(i.HAL_PCD_Stop) refers to stm32f4xx_ll_usb.o(i.USB_StopDevice) for USB_StopDevice
    stm32f4xx_hal_pcd.o(i.HAL_PCD_Stop) refers to stm32f4xx_ll_usb.o(i.USB_DevDisconnect) for USB_DevDisconnect
    stm32f4xx_hal_pcd.o(i.PCD_WriteEmptyTxFifo) refers to stm32f4xx_ll_usb.o(i.USB_WritePacket) for USB_WritePacket
    stm32f4xx_hal_sd.o(i.HAL_SD_CheckReadOperation) refers to stm32f4xx_hal_sd.o(i.HAL_SD_StopTransfer) for HAL_SD_StopTransfer
    stm32f4xx_hal_sd.o(i.HAL_SD_CheckWriteOperation) refers to stm32f4xx_hal_sd.o(i.HAL_SD_StopTransfer) for HAL_SD_StopTransfer
    stm32f4xx_hal_sd.o(i.HAL_SD_CheckWriteOperation) refers to stm32f4xx_hal_sd.o(i.HAL_SD_GetStatus) for HAL_SD_GetStatus
    stm32f4xx_hal_sd.o(i.HAL_SD_DeInit) refers to stm32f4xx_hal_sd.o(i.SD_PowerOFF) for SD_PowerOFF
    stm32f4xx_hal_sd.o(i.HAL_SD_DeInit) refers to sdio.o(i.HAL_SD_MspDeInit) for HAL_SD_MspDeInit
    stm32f4xx_hal_sd.o(i.HAL_SD_Erase) refers to stm32f4xx_ll_sdmmc.o(i.SDIO_GetResponse) for SDIO_GetResponse
    stm32f4xx_hal_sd.o(i.HAL_SD_Erase) refers to stm32f4xx_ll_sdmmc.o(i.SDIO_SendCommand) for SDIO_SendCommand
    stm32f4xx_hal_sd.o(i.HAL_SD_Erase) refers to stm32f4xx_hal_sd.o(i.SD_CmdResp1Error) for SD_CmdResp1Error
    stm32f4xx_hal_sd.o(i.HAL_SD_Erase) refers to stm32f4xx_hal_sd.o(i.SD_IsCardProgramming) for SD_IsCardProgramming
    stm32f4xx_hal_sd.o(i.HAL_SD_GetCardStatus) refers to stm32f4xx_hal_sd.o(i.HAL_SD_SendSDStatus) for HAL_SD_SendSDStatus
    stm32f4xx_hal_sd.o(i.HAL_SD_GetStatus) refers to stm32f4xx_hal_sd.o(i.SD_GetState) for SD_GetState
    stm32f4xx_hal_sd.o(i.HAL_SD_HighSpeed) refers to stm32f4xx_hal_sd.o(i.SD_FindSCR) for SD_FindSCR
    stm32f4xx_hal_sd.o(i.HAL_SD_HighSpeed) refers to stm32f4xx_ll_sdmmc.o(i.SDIO_SendCommand) for SDIO_SendCommand
    stm32f4xx_hal_sd.o(i.HAL_SD_HighSpeed) refers to stm32f4xx_hal_sd.o(i.SD_CmdResp1Error) for SD_CmdResp1Error
    stm32f4xx_hal_sd.o(i.HAL_SD_HighSpeed) refers to stm32f4xx_ll_sdmmc.o(i.SDIO_DataConfig) for SDIO_DataConfig
    stm32f4xx_hal_sd.o(i.HAL_SD_HighSpeed) refers to stm32f4xx_ll_sdmmc.o(i.SDIO_ReadFIFO) for SDIO_ReadFIFO
    stm32f4xx_hal_sd.o(i.HAL_SD_IRQHandler) refers to stm32f4xx_hal_sd.o(i.HAL_SD_XferCpltCallback) for HAL_SD_XferCpltCallback
    stm32f4xx_hal_sd.o(i.HAL_SD_IRQHandler) refers to stm32f4xx_hal_sd.o(i.HAL_SD_XferErrorCallback) for HAL_SD_XferErrorCallback
    stm32f4xx_hal_sd.o(i.HAL_SD_Init) refers to sdio.o(i.HAL_SD_MspInit) for HAL_SD_MspInit
    stm32f4xx_hal_sd.o(i.HAL_SD_Init) refers to stm32f4xx_ll_sdmmc.o(i.SDIO_Init) for SDIO_Init
    stm32f4xx_hal_sd.o(i.HAL_SD_Init) refers to stm32f4xx_hal_sd.o(i.SD_PowerON) for SD_PowerON
    stm32f4xx_hal_sd.o(i.HAL_SD_Init) refers to stm32f4xx_hal_sd.o(i.SD_Initialize_Cards) for SD_Initialize_Cards
    stm32f4xx_hal_sd.o(i.HAL_SD_Init) refers to stm32f4xx_hal_sd.o(i.HAL_SD_Get_CardInfo) for HAL_SD_Get_CardInfo
    stm32f4xx_hal_sd.o(i.HAL_SD_Init) refers to stm32f4xx_hal_sd.o(i.SD_Select_Deselect) for SD_Select_Deselect
    stm32f4xx_hal_sd.o(i.HAL_SD_ReadBlocks) refers to stm32f4xx_ll_sdmmc.o(i.SDIO_SendCommand) for SDIO_SendCommand
    stm32f4xx_hal_sd.o(i.HAL_SD_ReadBlocks) refers to stm32f4xx_hal_sd.o(i.SD_CmdResp1Error) for SD_CmdResp1Error
    stm32f4xx_hal_sd.o(i.HAL_SD_ReadBlocks) refers to stm32f4xx_ll_sdmmc.o(i.SDIO_DataConfig) for SDIO_DataConfig
    stm32f4xx_hal_sd.o(i.HAL_SD_ReadBlocks) refers to stm32f4xx_ll_sdmmc.o(i.SDIO_ReadFIFO) for SDIO_ReadFIFO
    stm32f4xx_hal_sd.o(i.HAL_SD_ReadBlocks) refers to stm32f4xx_hal_sd.o(i.HAL_SD_StopTransfer) for HAL_SD_StopTransfer
    stm32f4xx_hal_sd.o(i.HAL_SD_ReadBlocks_DMA) refers to stm32f4xx_hal_dma.o(i.HAL_DMA_Start_IT) for HAL_DMA_Start_IT
    stm32f4xx_hal_sd.o(i.HAL_SD_ReadBlocks_DMA) refers to stm32f4xx_ll_sdmmc.o(i.SDIO_SendCommand) for SDIO_SendCommand
    stm32f4xx_hal_sd.o(i.HAL_SD_ReadBlocks_DMA) refers to stm32f4xx_hal_sd.o(i.SD_CmdResp1Error) for SD_CmdResp1Error
    stm32f4xx_hal_sd.o(i.HAL_SD_ReadBlocks_DMA) refers to stm32f4xx_ll_sdmmc.o(i.SDIO_DataConfig) for SDIO_DataConfig
    stm32f4xx_hal_sd.o(i.HAL_SD_ReadBlocks_DMA) refers to stm32f4xx_hal_sd.o(i.SD_DMA_RxCplt) for SD_DMA_RxCplt
    stm32f4xx_hal_sd.o(i.HAL_SD_ReadBlocks_DMA) refers to stm32f4xx_hal_sd.o(i.SD_DMA_RxError) for SD_DMA_RxError
    stm32f4xx_hal_sd.o(i.HAL_SD_SendSDStatus) refers to stm32f4xx_ll_sdmmc.o(i.SDIO_GetResponse) for SDIO_GetResponse
    stm32f4xx_hal_sd.o(i.HAL_SD_SendSDStatus) refers to stm32f4xx_ll_sdmmc.o(i.SDIO_SendCommand) for SDIO_SendCommand
    stm32f4xx_hal_sd.o(i.HAL_SD_SendSDStatus) refers to stm32f4xx_hal_sd.o(i.SD_CmdResp1Error) for SD_CmdResp1Error
    stm32f4xx_hal_sd.o(i.HAL_SD_SendSDStatus) refers to stm32f4xx_ll_sdmmc.o(i.SDIO_DataConfig) for SDIO_DataConfig
    stm32f4xx_hal_sd.o(i.HAL_SD_SendSDStatus) refers to stm32f4xx_ll_sdmmc.o(i.SDIO_ReadFIFO) for SDIO_ReadFIFO
    stm32f4xx_hal_sd.o(i.HAL_SD_StopTransfer) refers to stm32f4xx_ll_sdmmc.o(i.SDIO_SendCommand) for SDIO_SendCommand
    stm32f4xx_hal_sd.o(i.HAL_SD_StopTransfer) refers to stm32f4xx_hal_sd.o(i.SD_CmdResp1Error) for SD_CmdResp1Error
    stm32f4xx_hal_sd.o(i.HAL_SD_WideBusOperation_Config) refers to stm32f4xx_hal_sd.o(i.SD_WideBus_Enable) for SD_WideBus_Enable
    stm32f4xx_hal_sd.o(i.HAL_SD_WideBusOperation_Config) refers to stm32f4xx_hal_sd.o(i.SD_WideBus_Disable) for SD_WideBus_Disable
    stm32f4xx_hal_sd.o(i.HAL_SD_WideBusOperation_Config) refers to stm32f4xx_ll_sdmmc.o(i.SDIO_Init) for SDIO_Init
    stm32f4xx_hal_sd.o(i.HAL_SD_WriteBlocks) refers to stm32f4xx_ll_sdmmc.o(i.SDIO_SendCommand) for SDIO_SendCommand
    stm32f4xx_hal_sd.o(i.HAL_SD_WriteBlocks) refers to stm32f4xx_hal_sd.o(i.SD_CmdResp1Error) for SD_CmdResp1Error
    stm32f4xx_hal_sd.o(i.HAL_SD_WriteBlocks) refers to stm32f4xx_ll_sdmmc.o(i.SDIO_DataConfig) for SDIO_DataConfig
    stm32f4xx_hal_sd.o(i.HAL_SD_WriteBlocks) refers to stm32f4xx_ll_sdmmc.o(i.SDIO_WriteFIFO) for SDIO_WriteFIFO
    stm32f4xx_hal_sd.o(i.HAL_SD_WriteBlocks) refers to stm32f4xx_hal_sd.o(i.HAL_SD_StopTransfer) for HAL_SD_StopTransfer
    stm32f4xx_hal_sd.o(i.HAL_SD_WriteBlocks) refers to stm32f4xx_hal_sd.o(i.SD_IsCardProgramming) for SD_IsCardProgramming
    stm32f4xx_hal_sd.o(i.HAL_SD_WriteBlocks_DMA) refers to stm32f4xx_hal_dma.o(i.HAL_DMA_Start_IT) for HAL_DMA_Start_IT
    stm32f4xx_hal_sd.o(i.HAL_SD_WriteBlocks_DMA) refers to stm32f4xx_ll_sdmmc.o(i.SDIO_SendCommand) for SDIO_SendCommand
    stm32f4xx_hal_sd.o(i.HAL_SD_WriteBlocks_DMA) refers to stm32f4xx_hal_sd.o(i.SD_CmdResp1Error) for SD_CmdResp1Error
    stm32f4xx_hal_sd.o(i.HAL_SD_WriteBlocks_DMA) refers to stm32f4xx_ll_sdmmc.o(i.SDIO_DataConfig) for SDIO_DataConfig
    stm32f4xx_hal_sd.o(i.HAL_SD_WriteBlocks_DMA) refers to stm32f4xx_hal_sd.o(i.SD_DMA_TxCplt) for SD_DMA_TxCplt
    stm32f4xx_hal_sd.o(i.HAL_SD_WriteBlocks_DMA) refers to stm32f4xx_hal_sd.o(i.SD_DMA_TxError) for SD_DMA_TxError
    stm32f4xx_hal_sd.o(i.SD_CmdResp1Error) refers to stm32f4xx_ll_sdmmc.o(i.SDIO_GetCommandResponse) for SDIO_GetCommandResponse
    stm32f4xx_hal_sd.o(i.SD_CmdResp1Error) refers to stm32f4xx_ll_sdmmc.o(i.SDIO_GetResponse) for SDIO_GetResponse
    stm32f4xx_hal_sd.o(i.SD_CmdResp6Error) refers to stm32f4xx_ll_sdmmc.o(i.SDIO_GetCommandResponse) for SDIO_GetCommandResponse
    stm32f4xx_hal_sd.o(i.SD_CmdResp6Error) refers to stm32f4xx_ll_sdmmc.o(i.SDIO_GetResponse) for SDIO_GetResponse
    stm32f4xx_hal_sd.o(i.SD_DMA_RxCplt) refers to stm32f4xx_hal_dma.o(i.HAL_DMA_Abort) for HAL_DMA_Abort
    stm32f4xx_hal_sd.o(i.SD_DMA_RxCplt) refers to stm32f4xx_hal_sd.o(i.HAL_SD_DMA_RxCpltCallback) for HAL_SD_DMA_RxCpltCallback
    stm32f4xx_hal_sd.o(i.SD_DMA_RxError) refers to stm32f4xx_hal_sd.o(i.HAL_SD_DMA_RxErrorCallback) for HAL_SD_DMA_RxErrorCallback
    stm32f4xx_hal_sd.o(i.SD_DMA_TxCplt) refers to stm32f4xx_hal_dma.o(i.HAL_DMA_Abort) for HAL_DMA_Abort
    stm32f4xx_hal_sd.o(i.SD_DMA_TxCplt) refers to stm32f4xx_hal_sd.o(i.HAL_SD_DMA_TxCpltCallback) for HAL_SD_DMA_TxCpltCallback
    stm32f4xx_hal_sd.o(i.SD_DMA_TxError) refers to stm32f4xx_hal_sd.o(i.HAL_SD_DMA_TxErrorCallback) for HAL_SD_DMA_TxErrorCallback
    stm32f4xx_hal_sd.o(i.SD_FindSCR) refers to stm32f4xx_ll_sdmmc.o(i.SDIO_SendCommand) for SDIO_SendCommand
    stm32f4xx_hal_sd.o(i.SD_FindSCR) refers to stm32f4xx_hal_sd.o(i.SD_CmdResp1Error) for SD_CmdResp1Error
    stm32f4xx_hal_sd.o(i.SD_FindSCR) refers to stm32f4xx_ll_sdmmc.o(i.SDIO_DataConfig) for SDIO_DataConfig
    stm32f4xx_hal_sd.o(i.SD_FindSCR) refers to stm32f4xx_ll_sdmmc.o(i.SDIO_ReadFIFO) for SDIO_ReadFIFO
    stm32f4xx_hal_sd.o(i.SD_GetState) refers to stm32f4xx_hal_sd.o(i.SD_SendStatus) for SD_SendStatus
    stm32f4xx_hal_sd.o(i.SD_Initialize_Cards) refers to stm32f4xx_ll_sdmmc.o(i.SDIO_GetPowerState) for SDIO_GetPowerState
    stm32f4xx_hal_sd.o(i.SD_Initialize_Cards) refers to stm32f4xx_ll_sdmmc.o(i.SDIO_SendCommand) for SDIO_SendCommand
    stm32f4xx_hal_sd.o(i.SD_Initialize_Cards) refers to stm32f4xx_hal_sd.o(i.SD_CmdResp2Error) for SD_CmdResp2Error
    stm32f4xx_hal_sd.o(i.SD_Initialize_Cards) refers to stm32f4xx_ll_sdmmc.o(i.SDIO_GetResponse) for SDIO_GetResponse
    stm32f4xx_hal_sd.o(i.SD_Initialize_Cards) refers to stm32f4xx_hal_sd.o(i.SD_CmdResp6Error) for SD_CmdResp6Error
    stm32f4xx_hal_sd.o(i.SD_IsCardProgramming) refers to stm32f4xx_ll_sdmmc.o(i.SDIO_SendCommand) for SDIO_SendCommand
    stm32f4xx_hal_sd.o(i.SD_IsCardProgramming) refers to stm32f4xx_ll_sdmmc.o(i.SDIO_GetCommandResponse) for SDIO_GetCommandResponse
    stm32f4xx_hal_sd.o(i.SD_IsCardProgramming) refers to stm32f4xx_ll_sdmmc.o(i.SDIO_GetResponse) for SDIO_GetResponse
    stm32f4xx_hal_sd.o(i.SD_PowerOFF) refers to stm32f4xx_ll_sdmmc.o(i.SDIO_PowerState_OFF) for SDIO_PowerState_OFF
    stm32f4xx_hal_sd.o(i.SD_PowerON) refers to stm32f4xx_ll_sdmmc.o(i.SDIO_PowerState_ON) for SDIO_PowerState_ON
    stm32f4xx_hal_sd.o(i.SD_PowerON) refers to stm32f4xx_hal.o(i.HAL_Delay) for HAL_Delay
    stm32f4xx_hal_sd.o(i.SD_PowerON) refers to stm32f4xx_ll_sdmmc.o(i.SDIO_SendCommand) for SDIO_SendCommand
    stm32f4xx_hal_sd.o(i.SD_PowerON) refers to stm32f4xx_hal_sd.o(i.SD_CmdError) for SD_CmdError
    stm32f4xx_hal_sd.o(i.SD_PowerON) refers to stm32f4xx_hal_sd.o(i.SD_CmdResp7Error) for SD_CmdResp7Error
    stm32f4xx_hal_sd.o(i.SD_PowerON) refers to stm32f4xx_hal_sd.o(i.SD_CmdResp1Error) for SD_CmdResp1Error
    stm32f4xx_hal_sd.o(i.SD_PowerON) refers to stm32f4xx_hal_sd.o(i.SD_CmdResp3Error) for SD_CmdResp3Error
    stm32f4xx_hal_sd.o(i.SD_PowerON) refers to stm32f4xx_ll_sdmmc.o(i.SDIO_GetResponse) for SDIO_GetResponse
    stm32f4xx_hal_sd.o(i.SD_Select_Deselect) refers to stm32f4xx_ll_sdmmc.o(i.SDIO_SendCommand) for SDIO_SendCommand
    stm32f4xx_hal_sd.o(i.SD_Select_Deselect) refers to stm32f4xx_hal_sd.o(i.SD_CmdResp1Error) for SD_CmdResp1Error
    stm32f4xx_hal_sd.o(i.SD_SendStatus) refers to stm32f4xx_ll_sdmmc.o(i.SDIO_SendCommand) for SDIO_SendCommand
    stm32f4xx_hal_sd.o(i.SD_SendStatus) refers to stm32f4xx_hal_sd.o(i.SD_CmdResp1Error) for SD_CmdResp1Error
    stm32f4xx_hal_sd.o(i.SD_SendStatus) refers to stm32f4xx_ll_sdmmc.o(i.SDIO_GetResponse) for SDIO_GetResponse
    stm32f4xx_hal_sd.o(i.SD_WideBus_Disable) refers to stm32f4xx_ll_sdmmc.o(i.SDIO_GetResponse) for SDIO_GetResponse
    stm32f4xx_hal_sd.o(i.SD_WideBus_Disable) refers to stm32f4xx_hal_sd.o(i.SD_FindSCR) for SD_FindSCR
    stm32f4xx_hal_sd.o(i.SD_WideBus_Disable) refers to stm32f4xx_ll_sdmmc.o(i.SDIO_SendCommand) for SDIO_SendCommand
    stm32f4xx_hal_sd.o(i.SD_WideBus_Disable) refers to stm32f4xx_hal_sd.o(i.SD_CmdResp1Error) for SD_CmdResp1Error
    stm32f4xx_hal_sd.o(i.SD_WideBus_Enable) refers to stm32f4xx_ll_sdmmc.o(i.SDIO_GetResponse) for SDIO_GetResponse
    stm32f4xx_hal_sd.o(i.SD_WideBus_Enable) refers to stm32f4xx_hal_sd.o(i.SD_FindSCR) for SD_FindSCR
    stm32f4xx_hal_sd.o(i.SD_WideBus_Enable) refers to stm32f4xx_ll_sdmmc.o(i.SDIO_SendCommand) for SDIO_SendCommand
    stm32f4xx_hal_sd.o(i.SD_WideBus_Enable) refers to stm32f4xx_hal_sd.o(i.SD_CmdResp1Error) for SD_CmdResp1Error
    startup_stm32f429xx.o(RESET) refers to startup_stm32f429xx.o(STACK) for __initial_sp
    startup_stm32f429xx.o(RESET) refers to startup_stm32f429xx.o(.text) for Reset_Handler
    startup_stm32f429xx.o(RESET) refers to stm32f4xx_it.o(i.SysTick_Handler) for SysTick_Handler
    startup_stm32f429xx.o(RESET) refers to stm32f4xx_it.o(i.SDIO_IRQHandler) for SDIO_IRQHandler
    startup_stm32f429xx.o(RESET) refers to stm32f4xx_it.o(i.DMA2_Stream3_IRQHandler) for DMA2_Stream3_IRQHandler
    startup_stm32f429xx.o(RESET) refers to stm32f4xx_it.o(i.OTG_FS_IRQHandler) for OTG_FS_IRQHandler
    startup_stm32f429xx.o(RESET) refers to stm32f4xx_it.o(i.DMA2_Stream6_IRQHandler) for DMA2_Stream6_IRQHandler
    startup_stm32f429xx.o(.text) refers to system_stm32f4xx.o(i.SystemInit) for SystemInit
    startup_stm32f429xx.o(.text) refers to entry.o(.ARM.Collect$$$$00000000) for __main
    usbd_msc.o(i.USBD_MSC_DataIn) refers to usbd_msc_bot.o(i.MSC_BOT_DataIn) for MSC_BOT_DataIn
    usbd_msc.o(i.USBD_MSC_DataOut) refers to usbd_msc_bot.o(i.MSC_BOT_DataOut) for MSC_BOT_DataOut
    usbd_msc.o(i.USBD_MSC_DeInit) refers to usbd_conf.o(i.USBD_LL_CloseEP) for USBD_LL_CloseEP
    usbd_msc.o(i.USBD_MSC_DeInit) refers to usbd_msc_bot.o(i.MSC_BOT_DeInit) for MSC_BOT_DeInit
    usbd_msc.o(i.USBD_MSC_DeInit) refers to malloc.o(i.free) for free
    usbd_msc.o(i.USBD_MSC_GetDeviceQualifierDescriptor) refers to usbd_msc.o(.data) for .data
    usbd_msc.o(i.USBD_MSC_GetFSCfgDesc) refers to usbd_msc.o(.data) for .data
    usbd_msc.o(i.USBD_MSC_GetHSCfgDesc) refers to usbd_msc.o(.data) for .data
    usbd_msc.o(i.USBD_MSC_GetOtherSpeedCfgDesc) refers to usbd_msc.o(.data) for .data
    usbd_msc.o(i.USBD_MSC_Init) refers to usbd_conf.o(i.USBD_LL_OpenEP) for USBD_LL_OpenEP
    usbd_msc.o(i.USBD_MSC_Init) refers to malloc.o(i.malloc) for malloc
    usbd_msc.o(i.USBD_MSC_Init) refers to usbd_msc_bot.o(i.MSC_BOT_Init) for MSC_BOT_Init
    usbd_msc.o(i.USBD_MSC_Setup) refers to usbd_ctlreq.o(i.USBD_CtlError) for USBD_CtlError
    usbd_msc.o(i.USBD_MSC_Setup) refers to usbd_ioreq.o(i.USBD_CtlSendData) for USBD_CtlSendData
    usbd_msc.o(i.USBD_MSC_Setup) refers to usbd_msc_bot.o(i.MSC_BOT_Reset) for MSC_BOT_Reset
    usbd_msc.o(i.USBD_MSC_Setup) refers to usbd_conf.o(i.USBD_LL_FlushEP) for USBD_LL_FlushEP
    usbd_msc.o(i.USBD_MSC_Setup) refers to usbd_conf.o(i.USBD_LL_CloseEP) for USBD_LL_CloseEP
    usbd_msc.o(i.USBD_MSC_Setup) refers to usbd_conf.o(i.USBD_LL_OpenEP) for USBD_LL_OpenEP
    usbd_msc.o(i.USBD_MSC_Setup) refers to usbd_msc_bot.o(i.MSC_BOT_CplClrFeature) for MSC_BOT_CplClrFeature
    usbd_msc.o(.data) refers to usbd_msc.o(i.USBD_MSC_Init) for USBD_MSC_Init
    usbd_msc.o(.data) refers to usbd_msc.o(i.USBD_MSC_DeInit) for USBD_MSC_DeInit
    usbd_msc.o(.data) refers to usbd_msc.o(i.USBD_MSC_Setup) for USBD_MSC_Setup
    usbd_msc.o(.data) refers to usbd_msc.o(i.USBD_MSC_DataIn) for USBD_MSC_DataIn
    usbd_msc.o(.data) refers to usbd_msc.o(i.USBD_MSC_DataOut) for USBD_MSC_DataOut
    usbd_msc.o(.data) refers to usbd_msc.o(i.USBD_MSC_GetHSCfgDesc) for USBD_MSC_GetHSCfgDesc
    usbd_msc.o(.data) refers to usbd_msc.o(i.USBD_MSC_GetFSCfgDesc) for USBD_MSC_GetFSCfgDesc
    usbd_msc.o(.data) refers to usbd_msc.o(i.USBD_MSC_GetOtherSpeedCfgDesc) for USBD_MSC_GetOtherSpeedCfgDesc
    usbd_msc.o(.data) refers to usbd_msc.o(i.USBD_MSC_GetDeviceQualifierDescriptor) for USBD_MSC_GetDeviceQualifierDescriptor
    usbd_msc_bot.o(i.MSC_BOT_Abort) refers to usbd_conf.o(i.USBD_LL_StallEP) for USBD_LL_StallEP
    usbd_msc_bot.o(i.MSC_BOT_Abort) refers to usbd_conf.o(i.USBD_LL_PrepareReceive) for USBD_LL_PrepareReceive
    usbd_msc_bot.o(i.MSC_BOT_CBW_Decode) refers to usbd_conf.o(i.USBD_LL_GetRxDataSize) for USBD_LL_GetRxDataSize
    usbd_msc_bot.o(i.MSC_BOT_CBW_Decode) refers to usbd_msc_scsi.o(i.SCSI_SenseCode) for SCSI_SenseCode
    usbd_msc_bot.o(i.MSC_BOT_CBW_Decode) refers to usbd_msc_bot.o(i.MSC_BOT_Abort) for MSC_BOT_Abort
    usbd_msc_bot.o(i.MSC_BOT_CBW_Decode) refers to usbd_msc_scsi.o(i.SCSI_ProcessCmd) for SCSI_ProcessCmd
    usbd_msc_bot.o(i.MSC_BOT_CBW_Decode) refers to usbd_msc_bot.o(i.MSC_BOT_SendCSW) for MSC_BOT_SendCSW
    usbd_msc_bot.o(i.MSC_BOT_CBW_Decode) refers to usbd_msc_bot.o(i.MSC_BOT_SendData) for MSC_BOT_SendData
    usbd_msc_bot.o(i.MSC_BOT_CplClrFeature) refers to usbd_msc_bot.o(i.MSC_BOT_SendCSW) for MSC_BOT_SendCSW
    usbd_msc_bot.o(i.MSC_BOT_CplClrFeature) refers to usbd_conf.o(i.USBD_LL_StallEP) for USBD_LL_StallEP
    usbd_msc_bot.o(i.MSC_BOT_DataIn) refers to usbd_msc_bot.o(i.MSC_BOT_SendCSW) for MSC_BOT_SendCSW
    usbd_msc_bot.o(i.MSC_BOT_DataIn) refers to usbd_msc_scsi.o(i.SCSI_ProcessCmd) for SCSI_ProcessCmd
    usbd_msc_bot.o(i.MSC_BOT_DataOut) refers to usbd_msc_scsi.o(i.SCSI_ProcessCmd) for SCSI_ProcessCmd
    usbd_msc_bot.o(i.MSC_BOT_DataOut) refers to usbd_msc_bot.o(i.MSC_BOT_SendCSW) for MSC_BOT_SendCSW
    usbd_msc_bot.o(i.MSC_BOT_DataOut) refers to usbd_msc_bot.o(i.MSC_BOT_CBW_Decode) for MSC_BOT_CBW_Decode
    usbd_msc_bot.o(i.MSC_BOT_Init) refers to usbd_conf.o(i.USBD_LL_FlushEP) for USBD_LL_FlushEP
    usbd_msc_bot.o(i.MSC_BOT_Init) refers to usbd_conf.o(i.USBD_LL_PrepareReceive) for USBD_LL_PrepareReceive
    usbd_msc_bot.o(i.MSC_BOT_Reset) refers to usbd_conf.o(i.USBD_LL_PrepareReceive) for USBD_LL_PrepareReceive
    usbd_msc_bot.o(i.MSC_BOT_SendCSW) refers to usbd_conf.o(i.USBD_LL_Transmit) for USBD_LL_Transmit
    usbd_msc_bot.o(i.MSC_BOT_SendCSW) refers to usbd_conf.o(i.USBD_LL_PrepareReceive) for USBD_LL_PrepareReceive
    usbd_msc_bot.o(i.MSC_BOT_SendData) refers to usbd_conf.o(i.USBD_LL_Transmit) for USBD_LL_Transmit
    usbd_msc_scsi.o(i.SCSI_CheckAddressRange) refers to usbd_msc_scsi.o(i.SCSI_SenseCode) for SCSI_SenseCode
    usbd_msc_scsi.o(i.SCSI_Inquiry) refers to usbd_msc_data.o(.constdata) for MSC_Page00_Inquiry_Data
    usbd_msc_scsi.o(i.SCSI_ModeSense10) refers to usbd_msc_data.o(.constdata) for MSC_Mode_Sense10_data
    usbd_msc_scsi.o(i.SCSI_ModeSense6) refers to usbd_msc_data.o(.constdata) for MSC_Mode_Sense6_data
    usbd_msc_scsi.o(i.SCSI_ProcessCmd) refers to usbd_msc_scsi.o(i.SCSI_SenseCode) for SCSI_SenseCode
    usbd_msc_scsi.o(i.SCSI_ProcessCmd) refers to usbd_msc_scsi.o(i.SCSI_TestUnitReady) for SCSI_TestUnitReady
    usbd_msc_scsi.o(i.SCSI_ProcessCmd) refers to usbd_msc_scsi.o(i.SCSI_RequestSense) for SCSI_RequestSense
    usbd_msc_scsi.o(i.SCSI_ProcessCmd) refers to usbd_msc_scsi.o(i.SCSI_Inquiry) for SCSI_Inquiry
    usbd_msc_scsi.o(i.SCSI_ProcessCmd) refers to usbd_msc_scsi.o(i.SCSI_StartStopUnit) for SCSI_StartStopUnit
    usbd_msc_scsi.o(i.SCSI_ProcessCmd) refers to usbd_msc_scsi.o(i.SCSI_ModeSense6) for SCSI_ModeSense6
    usbd_msc_scsi.o(i.SCSI_ProcessCmd) refers to usbd_msc_scsi.o(i.SCSI_ModeSense10) for SCSI_ModeSense10
    usbd_msc_scsi.o(i.SCSI_ProcessCmd) refers to usbd_msc_scsi.o(i.SCSI_ReadFormatCapacity) for SCSI_ReadFormatCapacity
    usbd_msc_scsi.o(i.SCSI_ProcessCmd) refers to usbd_msc_scsi.o(i.SCSI_ReadCapacity10) for SCSI_ReadCapacity10
    usbd_msc_scsi.o(i.SCSI_ProcessCmd) refers to usbd_msc_scsi.o(i.SCSI_Read10) for SCSI_Read10
    usbd_msc_scsi.o(i.SCSI_ProcessCmd) refers to usbd_msc_scsi.o(i.SCSI_Write10) for SCSI_Write10
    usbd_msc_scsi.o(i.SCSI_ProcessCmd) refers to usbd_msc_scsi.o(i.SCSI_Verify10) for SCSI_Verify10
    usbd_msc_scsi.o(i.SCSI_ProcessRead) refers to usbd_msc_scsi.o(i.SCSI_SenseCode) for SCSI_SenseCode
    usbd_msc_scsi.o(i.SCSI_ProcessRead) refers to usbd_conf.o(i.USBD_LL_Transmit) for USBD_LL_Transmit
    usbd_msc_scsi.o(i.SCSI_ProcessWrite) refers to usbd_msc_scsi.o(i.SCSI_SenseCode) for SCSI_SenseCode
    usbd_msc_scsi.o(i.SCSI_ProcessWrite) refers to usbd_conf.o(i.USBD_LL_PrepareReceive) for USBD_LL_PrepareReceive
    usbd_msc_scsi.o(i.SCSI_ProcessWrite) refers to usbd_msc_bot.o(i.MSC_BOT_SendCSW) for MSC_BOT_SendCSW
    usbd_msc_scsi.o(i.SCSI_Read10) refers to usbd_msc_scsi.o(i.SCSI_SenseCode) for SCSI_SenseCode
    usbd_msc_scsi.o(i.SCSI_Read10) refers to usbd_msc_scsi.o(i.SCSI_CheckAddressRange) for SCSI_CheckAddressRange
    usbd_msc_scsi.o(i.SCSI_Read10) refers to usbd_msc_scsi.o(i.SCSI_ProcessRead) for SCSI_ProcessRead
    usbd_msc_scsi.o(i.SCSI_ReadCapacity10) refers to usbd_msc_scsi.o(i.SCSI_SenseCode) for SCSI_SenseCode
    usbd_msc_scsi.o(i.SCSI_ReadFormatCapacity) refers to usbd_msc_scsi.o(i.SCSI_SenseCode) for SCSI_SenseCode
    usbd_msc_scsi.o(i.SCSI_TestUnitReady) refers to usbd_msc_scsi.o(i.SCSI_SenseCode) for SCSI_SenseCode
    usbd_msc_scsi.o(i.SCSI_Verify10) refers to usbd_msc_scsi.o(i.SCSI_SenseCode) for SCSI_SenseCode
    usbd_msc_scsi.o(i.SCSI_Verify10) refers to usbd_msc_scsi.o(i.SCSI_CheckAddressRange) for SCSI_CheckAddressRange
    usbd_msc_scsi.o(i.SCSI_Write10) refers to usbd_msc_scsi.o(i.SCSI_ProcessWrite) for SCSI_ProcessWrite
    usbd_msc_scsi.o(i.SCSI_Write10) refers to usbd_msc_scsi.o(i.SCSI_SenseCode) for SCSI_SenseCode
    usbd_msc_scsi.o(i.SCSI_Write10) refers to usbd_msc_scsi.o(i.SCSI_CheckAddressRange) for SCSI_CheckAddressRange
    usbd_msc_scsi.o(i.SCSI_Write10) refers to usbd_conf.o(i.USBD_LL_PrepareReceive) for USBD_LL_PrepareReceive
    usbd_ctlreq.o(i.USBD_ClrFeature) refers to usbd_ctlreq.o(i.USBD_CtlError) for USBD_CtlError
    usbd_ctlreq.o(i.USBD_ClrFeature) refers to usbd_ioreq.o(i.USBD_CtlSendStatus) for USBD_CtlSendStatus
    usbd_ctlreq.o(i.USBD_CtlError) refers to usbd_conf.o(i.USBD_LL_StallEP) for USBD_LL_StallEP
    usbd_ctlreq.o(i.USBD_GetConfig) refers to usbd_ctlreq.o(i.USBD_CtlError) for USBD_CtlError
    usbd_ctlreq.o(i.USBD_GetConfig) refers to usbd_ioreq.o(i.USBD_CtlSendData) for USBD_CtlSendData
    usbd_ctlreq.o(i.USBD_GetDescriptor) refers to usbd_ctlreq.o(i.USBD_CtlError) for USBD_CtlError
    usbd_ctlreq.o(i.USBD_GetDescriptor) refers to usbd_ioreq.o(i.USBD_CtlSendData) for USBD_CtlSendData
    usbd_ctlreq.o(i.USBD_GetStatus) refers to usbd_ctlreq.o(i.USBD_CtlError) for USBD_CtlError
    usbd_ctlreq.o(i.USBD_GetStatus) refers to usbd_ioreq.o(i.USBD_CtlSendData) for USBD_CtlSendData
    usbd_ctlreq.o(i.USBD_GetString) refers to usbd_ctlreq.o(i.USBD_GetLen) for USBD_GetLen
    usbd_ctlreq.o(i.USBD_SetAddress) refers to usbd_ctlreq.o(i.USBD_CtlError) for USBD_CtlError
    usbd_ctlreq.o(i.USBD_SetAddress) refers to usbd_conf.o(i.USBD_LL_SetUSBAddress) for USBD_LL_SetUSBAddress
    usbd_ctlreq.o(i.USBD_SetAddress) refers to usbd_ioreq.o(i.USBD_CtlSendStatus) for USBD_CtlSendStatus
    usbd_ctlreq.o(i.USBD_SetConfig) refers to usbd_ctlreq.o(i.USBD_CtlError) for USBD_CtlError
    usbd_ctlreq.o(i.USBD_SetConfig) refers to usbd_core.o(i.USBD_SetClassConfig) for USBD_SetClassConfig
    usbd_ctlreq.o(i.USBD_SetConfig) refers to usbd_ioreq.o(i.USBD_CtlSendStatus) for USBD_CtlSendStatus
    usbd_ctlreq.o(i.USBD_SetConfig) refers to usbd_core.o(i.USBD_ClrClassConfig) for USBD_ClrClassConfig
    usbd_ctlreq.o(i.USBD_SetConfig) refers to usbd_ctlreq.o(.data) for .data
    usbd_ctlreq.o(i.USBD_SetFeature) refers to usbd_ioreq.o(i.USBD_CtlSendStatus) for USBD_CtlSendStatus
    usbd_ctlreq.o(i.USBD_StdDevReq) refers to usbd_ctlreq.o(i.USBD_GetDescriptor) for USBD_GetDescriptor
    usbd_ctlreq.o(i.USBD_StdDevReq) refers to usbd_ctlreq.o(i.USBD_SetAddress) for USBD_SetAddress
    usbd_ctlreq.o(i.USBD_StdDevReq) refers to usbd_ctlreq.o(i.USBD_SetConfig) for USBD_SetConfig
    usbd_ctlreq.o(i.USBD_StdDevReq) refers to usbd_ctlreq.o(i.USBD_GetConfig) for USBD_GetConfig
    usbd_ctlreq.o(i.USBD_StdDevReq) refers to usbd_ctlreq.o(i.USBD_GetStatus) for USBD_GetStatus
    usbd_ctlreq.o(i.USBD_StdDevReq) refers to usbd_ctlreq.o(i.USBD_SetFeature) for USBD_SetFeature
    usbd_ctlreq.o(i.USBD_StdDevReq) refers to usbd_ctlreq.o(i.USBD_ClrFeature) for USBD_ClrFeature
    usbd_ctlreq.o(i.USBD_StdDevReq) refers to usbd_ctlreq.o(i.USBD_CtlError) for USBD_CtlError
    usbd_ctlreq.o(i.USBD_StdEPReq) refers to usbd_ctlreq.o(i.USBD_CtlError) for USBD_CtlError
    usbd_ctlreq.o(i.USBD_StdEPReq) refers to usbd_conf.o(i.USBD_LL_StallEP) for USBD_LL_StallEP
    usbd_ctlreq.o(i.USBD_StdEPReq) refers to usbd_ioreq.o(i.USBD_CtlSendStatus) for USBD_CtlSendStatus
    usbd_ctlreq.o(i.USBD_StdEPReq) refers to usbd_conf.o(i.USBD_LL_ClearStallEP) for USBD_LL_ClearStallEP
    usbd_ctlreq.o(i.USBD_StdEPReq) refers to usbd_conf.o(i.USBD_LL_IsStallEP) for USBD_LL_IsStallEP
    usbd_ctlreq.o(i.USBD_StdEPReq) refers to usbd_ioreq.o(i.USBD_CtlSendData) for USBD_CtlSendData
    usbd_ctlreq.o(i.USBD_StdItfReq) refers to usbd_ctlreq.o(i.USBD_CtlError) for USBD_CtlError
    usbd_ctlreq.o(i.USBD_StdItfReq) refers to usbd_ioreq.o(i.USBD_CtlSendStatus) for USBD_CtlSendStatus
    usbd_core.o(i.USBD_DeInit) refers to usbd_conf.o(i.USBD_LL_Stop) for USBD_LL_Stop
    usbd_core.o(i.USBD_DeInit) refers to usbd_conf.o(i.USBD_LL_DeInit) for USBD_LL_DeInit
    usbd_core.o(i.USBD_Init) refers to usbd_conf.o(i.USBD_LL_Init) for USBD_LL_Init
    usbd_core.o(i.USBD_LL_DataInStage) refers to usbd_ioreq.o(i.USBD_CtlContinueSendData) for USBD_CtlContinueSendData
    usbd_core.o(i.USBD_LL_DataInStage) refers to usbd_conf.o(i.USBD_LL_PrepareReceive) for USBD_LL_PrepareReceive
    usbd_core.o(i.USBD_LL_DataInStage) refers to usbd_ioreq.o(i.USBD_CtlReceiveStatus) for USBD_CtlReceiveStatus
    usbd_core.o(i.USBD_LL_DataInStage) refers to usbd_core.o(i.USBD_RunTestMode) for USBD_RunTestMode
    usbd_core.o(i.USBD_LL_DataOutStage) refers to usbd_ioreq.o(i.USBD_CtlContinueRx) for USBD_CtlContinueRx
    usbd_core.o(i.USBD_LL_DataOutStage) refers to usbd_ioreq.o(i.USBD_CtlSendStatus) for USBD_CtlSendStatus
    usbd_core.o(i.USBD_LL_Reset) refers to usbd_conf.o(i.USBD_LL_OpenEP) for USBD_LL_OpenEP
    usbd_core.o(i.USBD_LL_SetupStage) refers to usbd_ctlreq.o(i.USBD_ParseSetupRequest) for USBD_ParseSetupRequest
    usbd_core.o(i.USBD_LL_SetupStage) refers to usbd_conf.o(i.USBD_LL_StallEP) for USBD_LL_StallEP
    usbd_core.o(i.USBD_LL_SetupStage) refers to usbd_ctlreq.o(i.USBD_StdDevReq) for USBD_StdDevReq
    usbd_core.o(i.USBD_LL_SetupStage) refers to usbd_ctlreq.o(i.USBD_StdItfReq) for USBD_StdItfReq
    usbd_core.o(i.USBD_LL_SetupStage) refers to usbd_ctlreq.o(i.USBD_StdEPReq) for USBD_StdEPReq
    usbd_core.o(i.USBD_Start) refers to usbd_conf.o(i.USBD_LL_Start) for USBD_LL_Start
    usbd_core.o(i.USBD_Stop) refers to usbd_conf.o(i.USBD_LL_Stop) for USBD_LL_Stop
    usbd_ioreq.o(i.USBD_CtlContinueRx) refers to usbd_conf.o(i.USBD_LL_PrepareReceive) for USBD_LL_PrepareReceive
    usbd_ioreq.o(i.USBD_CtlContinueSendData) refers to usbd_conf.o(i.USBD_LL_Transmit) for USBD_LL_Transmit
    usbd_ioreq.o(i.USBD_CtlPrepareRx) refers to usbd_conf.o(i.USBD_LL_PrepareReceive) for USBD_LL_PrepareReceive
    usbd_ioreq.o(i.USBD_CtlReceiveStatus) refers to usbd_conf.o(i.USBD_LL_PrepareReceive) for USBD_LL_PrepareReceive
    usbd_ioreq.o(i.USBD_CtlSendData) refers to usbd_conf.o(i.USBD_LL_Transmit) for USBD_LL_Transmit
    usbd_ioreq.o(i.USBD_CtlSendStatus) refers to usbd_conf.o(i.USBD_LL_Transmit) for USBD_LL_Transmit
    usbd_ioreq.o(i.USBD_GetRxCount) refers to usbd_conf.o(i.USBD_LL_GetRxDataSize) for USBD_LL_GetRxDataSize
    entry.o(.ARM.Collect$$$$00000000) refers (Special) to entry10a.o(.ARM.Collect$$$$0000000D) for __rt_final_cpp
    entry.o(.ARM.Collect$$$$00000000) refers (Special) to entry11a.o(.ARM.Collect$$$$0000000F) for __rt_final_exit
    entry.o(.ARM.Collect$$$$00000000) refers (Special) to entry7b.o(.ARM.Collect$$$$00000008) for _main_clock
    entry.o(.ARM.Collect$$$$00000000) refers (Special) to entry8b.o(.ARM.Collect$$$$0000000A) for _main_cpp_init
    entry.o(.ARM.Collect$$$$00000000) refers (Special) to entry9a.o(.ARM.Collect$$$$0000000B) for _main_init
    entry.o(.ARM.Collect$$$$00000000) refers (Special) to entry5.o(.ARM.Collect$$$$00000004) for _main_scatterload
    entry.o(.ARM.Collect$$$$00000000) refers (Special) to entry2.o(.ARM.Collect$$$$00000001) for _main_stk
    malloc.o(i.free) refers to mvars.o(.data) for __microlib_freelist
    malloc.o(i.malloc) refers to mvars.o(.data) for __microlib_freelist_initialised
    malloc.o(i.malloc) refers to mvars.o(.data) for __microlib_freelist
    malloc.o(i.malloc) refers to startup_stm32f429xx.o(HEAP) for __heap_base
    mallocr.o(i.__free$realloc) refers to mvars.o(.data) for __microlib_freelist
    mallocr.o(i.__malloc$realloc) refers to mallocr.o(i.internal_alloc) for internal_alloc
    mallocr.o(i.__malloc$realloc) refers to mvars.o(.data) for __microlib_freelist_initialised
    mallocr.o(i.__malloc$realloc) refers to startup_stm32f429xx.o(HEAP) for __heap_base
    mallocr.o(i.__malloc$realloc) refers to mvars.o(.data) for __microlib_freelist
    mallocr.o(i.internal_alloc) refers to memcpya.o(.text) for __aeabi_memcpy
    mallocr.o(i.internal_alloc) refers to mvars.o(.data) for __microlib_freelist
    mallocr.o(i.realloc) refers to mallocr.o(i.__free$realloc) for __free$realloc
    mallocr.o(i.realloc) refers to mallocr.o(i.internal_alloc) for internal_alloc
    mallocr.o(i.realloc) refers to mallocr.o(i.__malloc$realloc) for __malloc$realloc
    mallocr.o(i.realloc) refers to mvars.o(.data) for __microlib_freelist
    malloca.o(i.__aligned_malloc) refers to mvars.o(.data) for __microlib_freelist_initialised
    malloca.o(i.__aligned_malloc) refers to mvars.o(.data) for __microlib_freelist
    malloca.o(i.__aligned_malloc) refers to startup_stm32f429xx.o(HEAP) for __heap_base
    malloca.o(i.__free$memalign) refers to mvars.o(.data) for __microlib_freelist
    malloca.o(i.__malloc$memalign) refers to malloca.o(i.__aligned_malloc) for __aligned_malloc
    mallocra.o(i.__aligned_malloc$realloc) refers to mallocra.o(i.internal_alloc) for internal_alloc
    mallocra.o(i.__aligned_malloc$realloc) refers to mvars.o(.data) for __microlib_freelist_initialised
    mallocra.o(i.__aligned_malloc$realloc) refers to startup_stm32f429xx.o(HEAP) for __heap_base
    mallocra.o(i.__aligned_malloc$realloc) refers to mvars.o(.data) for __microlib_freelist
    mallocra.o(i.__free$realloc$memalign) refers to mvars.o(.data) for __microlib_freelist
    mallocra.o(i.__malloc$realloc$memalign) refers to mallocra.o(i.__aligned_malloc$realloc) for __aligned_malloc$realloc
    mallocra.o(i.__realloc$memalign) refers to mallocra.o(i.__free$realloc$memalign) for __free$realloc$memalign
    mallocra.o(i.__realloc$memalign) refers to mallocra.o(i.internal_alloc) for internal_alloc
    mallocra.o(i.__realloc$memalign) refers to mallocra.o(i.__malloc$realloc$memalign) for __malloc$realloc$memalign
    mallocra.o(i.__realloc$memalign) refers to mvars.o(.data) for __microlib_freelist
    mallocra.o(i.internal_alloc) refers to memcpya.o(.text) for __aeabi_memcpy
    mallocra.o(i.internal_alloc) refers to mvars.o(.data) for __microlib_freelist
    entry2.o(.ARM.Collect$$$$00000001) refers to entry2.o(.ARM.Collect$$$$00002712) for __lit__00000000
    entry2.o(.ARM.Collect$$$$00002712) refers to startup_stm32f429xx.o(STACK) for __initial_sp
    entry2.o(__vectab_stack_and_reset_area) refers to startup_stm32f429xx.o(STACK) for __initial_sp
    entry2.o(__vectab_stack_and_reset_area) refers to entry.o(.ARM.Collect$$$$00000000) for __main
    entry5.o(.ARM.Collect$$$$00000004) refers to init.o(.text) for __scatterload
    entry9a.o(.ARM.Collect$$$$0000000B) refers to main.o(i.main) for main
    entry9b.o(.ARM.Collect$$$$0000000C) refers to main.o(i.main) for main
    init.o(.text) refers to entry5.o(.ARM.Collect$$$$00000004) for __main_after_scatterload


==============================================================================

Removing Unused input sections from the image.

    Removing main.o(.rev16_text), (4 bytes).
    Removing main.o(.revsh_text), (4 bytes).
    Removing main.o(.rrx_text), (6 bytes).
    Removing stm32f4xx_it.o(.rev16_text), (4 bytes).
    Removing stm32f4xx_it.o(.revsh_text), (4 bytes).
    Removing stm32f4xx_it.o(.rrx_text), (6 bytes).
    Removing stm32f4xx_hal_msp.o(.rev16_text), (4 bytes).
    Removing stm32f4xx_hal_msp.o(.revsh_text), (4 bytes).
    Removing stm32f4xx_hal_msp.o(.rrx_text), (6 bytes).
    Removing dma2d.o(.rev16_text), (4 bytes).
    Removing dma2d.o(.revsh_text), (4 bytes).
    Removing dma2d.o(.rrx_text), (6 bytes).
    Removing dma2d.o(i.HAL_DMA2D_MspDeInit), (28 bytes).
    Removing ltdc.o(.rev16_text), (4 bytes).
    Removing ltdc.o(.revsh_text), (4 bytes).
    Removing ltdc.o(.rrx_text), (6 bytes).
    Removing ltdc.o(i.HAL_LTDC_MspDeInit), (128 bytes).
    Removing gpio.o(.rev16_text), (4 bytes).
    Removing gpio.o(.revsh_text), (4 bytes).
    Removing gpio.o(.rrx_text), (6 bytes).
    Removing gpio.o(i.BSP_LED_Off), (28 bytes).
    Removing gpio.o(i.BSP_LED_On), (28 bytes).
    Removing gpio.o(i.BSP_LED_Toggle), (24 bytes).
    Removing gpio.o(.constdata), (8 bytes).
    Removing gpio.o(.data), (16 bytes).
    Removing fmc.o(.rev16_text), (4 bytes).
    Removing fmc.o(.revsh_text), (4 bytes).
    Removing fmc.o(.rrx_text), (6 bytes).
    Removing fmc.o(i.HAL_FMC_MspDeInit), (108 bytes).
    Removing fmc.o(i.HAL_SDRAM_MspDeInit), (4 bytes).
    Removing dma.o(.rev16_text), (4 bytes).
    Removing dma.o(.revsh_text), (4 bytes).
    Removing dma.o(.rrx_text), (6 bytes).
    Removing usbd_conf.o(.rev16_text), (4 bytes).
    Removing usbd_conf.o(.revsh_text), (4 bytes).
    Removing usbd_conf.o(.rrx_text), (6 bytes).
    Removing usbd_conf.o(i.HAL_PCD_MspDeInit), (64 bytes).
    Removing usbd_conf.o(i.USBD_LL_DeInit), (14 bytes).
    Removing usbd_conf.o(i.USBD_LL_Delay), (4 bytes).
    Removing usbd_conf.o(i.USBD_LL_Stop), (14 bytes).
    Removing usbd_desc.o(.rev16_text), (4 bytes).
    Removing usbd_desc.o(.revsh_text), (4 bytes).
    Removing usbd_desc.o(.rrx_text), (6 bytes).
    Removing usb_device.o(.rev16_text), (4 bytes).
    Removing usb_device.o(.revsh_text), (4 bytes).
    Removing usb_device.o(.rrx_text), (6 bytes).
    Removing usbd_storage_if.o(.rev16_text), (4 bytes).
    Removing usbd_storage_if.o(.revsh_text), (4 bytes).
    Removing usbd_storage_if.o(.rrx_text), (6 bytes).
    Removing usbd_storage_if.o(.data), (4 bytes).
    Removing sdio.o(.rev16_text), (4 bytes).
    Removing sdio.o(.revsh_text), (4 bytes).
    Removing sdio.o(.rrx_text), (6 bytes).
    Removing sdio.o(i.BSP_SD_IsDetected), (32 bytes).
    Removing sdio.o(i.HAL_SD_MspDeInit), (80 bytes).
    Removing stm324x9i_lcd.o(.rev16_text), (4 bytes).
    Removing stm324x9i_lcd.o(.revsh_text), (4 bytes).
    Removing stm324x9i_lcd.o(.rrx_text), (6 bytes).
    Removing stm324x9i_lcd.o(i.BSP_LCD_ClearStringLine), (92 bytes).
    Removing stm324x9i_lcd.o(i.BSP_LCD_ClockConfig), (28 bytes).
    Removing stm324x9i_lcd.o(i.BSP_LCD_DeInit), (44 bytes).
    Removing stm324x9i_lcd.o(i.BSP_LCD_DisplayOff), (52 bytes).
    Removing stm324x9i_lcd.o(i.BSP_LCD_DisplayOn), (52 bytes).
    Removing stm324x9i_lcd.o(i.BSP_LCD_DisplayStringAtLine), (28 bytes).
    Removing stm324x9i_lcd.o(i.BSP_LCD_DrawBitmap), (156 bytes).
    Removing stm324x9i_lcd.o(i.BSP_LCD_DrawCircle), (280 bytes).
    Removing stm324x9i_lcd.o(i.BSP_LCD_DrawEllipse), (284 bytes).
    Removing stm324x9i_lcd.o(i.BSP_LCD_DrawHLine), (128 bytes).
    Removing stm324x9i_lcd.o(i.BSP_LCD_DrawLine), (200 bytes).
    Removing stm324x9i_lcd.o(i.BSP_LCD_DrawPolygon), (58 bytes).
    Removing stm324x9i_lcd.o(i.BSP_LCD_DrawRect), (54 bytes).
    Removing stm324x9i_lcd.o(i.BSP_LCD_DrawVLine), (140 bytes).
    Removing stm324x9i_lcd.o(i.BSP_LCD_FillCircle), (196 bytes).
    Removing stm324x9i_lcd.o(i.BSP_LCD_FillEllipse), (216 bytes).
    Removing stm324x9i_lcd.o(i.BSP_LCD_FillPolygon), (276 bytes).
    Removing stm324x9i_lcd.o(i.BSP_LCD_GetBackColor), (28 bytes).
    Removing stm324x9i_lcd.o(i.BSP_LCD_GetFont), (28 bytes).
    Removing stm324x9i_lcd.o(i.BSP_LCD_GetTextColor), (24 bytes).
    Removing stm324x9i_lcd.o(i.BSP_LCD_LayerDefaultInit), (120 bytes).
    Removing stm324x9i_lcd.o(i.BSP_LCD_LayerRgb565Init), (124 bytes).
    Removing stm324x9i_lcd.o(i.BSP_LCD_MspDeInit), (124 bytes).
    Removing stm324x9i_lcd.o(i.BSP_LCD_MspInit), (368 bytes).
    Removing stm324x9i_lcd.o(i.BSP_LCD_ReadPixel), (176 bytes).
    Removing stm324x9i_lcd.o(i.BSP_LCD_ResetColorKeying), (12 bytes).
    Removing stm324x9i_lcd.o(i.BSP_LCD_SetColorKeying), (28 bytes).
    Removing stm324x9i_lcd.o(i.BSP_LCD_SetLayerAddress), (12 bytes).
    Removing stm324x9i_lcd.o(i.BSP_LCD_SetLayerWindow), (44 bytes).
    Removing stm324x9i_lcd.o(i.BSP_LCD_SetTransparency), (12 bytes).
    Removing stm324x9i_lcd.o(i.BSP_LCD_SetXSize), (32 bytes).
    Removing stm324x9i_lcd.o(i.BSP_LCD_SetYSize), (32 bytes).
    Removing stm324x9i_lcd.o(i.FillTriangle), (188 bytes).
    Removing stm324x9i_lcd.o(i.LL_ConvertLineToARGB8888), (100 bytes).
    Removing stm324x9i_lcd.o(.constdata), (1140 bytes).
    Removing stm324x9i_lcd.o(.constdata), (760 bytes).
    Removing stm324x9i_lcd.o(.data), (8 bytes).
    Removing stm324x9i_lcd.o(.data), (8 bytes).
    Removing stm324x9i_sdram.o(.rev16_text), (4 bytes).
    Removing stm324x9i_sdram.o(.revsh_text), (4 bytes).
    Removing stm324x9i_sdram.o(.rrx_text), (6 bytes).
    Removing stm324x9i_sdram.o(i.BSP_SDRAM_DMA_IRQHandler), (12 bytes).
    Removing stm324x9i_sdram.o(i.BSP_SDRAM_ReadData), (28 bytes).
    Removing stm324x9i_sdram.o(i.BSP_SDRAM_ReadData_DMA), (28 bytes).
    Removing stm324x9i_sdram.o(i.BSP_SDRAM_Sendcmd), (28 bytes).
    Removing stm324x9i_sdram.o(i.BSP_SDRAM_WriteData), (28 bytes).
    Removing stm324x9i_sdram.o(i.BSP_SDRAM_WriteData_DMA), (28 bytes).
    Removing lcd_log.o(.rev16_text), (4 bytes).
    Removing lcd_log.o(.revsh_text), (4 bytes).
    Removing lcd_log.o(.rrx_text), (6 bytes).
    Removing lcd_log.o(i.LCD_LOG_ClearTextZone), (26 bytes).
    Removing lcd_log.o(i.LCD_LOG_ScrollBack), (128 bytes).
    Removing lcd_log.o(i.LCD_LOG_ScrollForward), (96 bytes).
    Removing lcd_log.o(i.LCD_LOG_UpdateDisplay), (132 bytes).
    Removing lcd_log.o(i.fputc), (260 bytes).
    Removing lcd_log.o(.bss), (16368 bytes).
    Removing system_stm32f4xx.o(.rev16_text), (4 bytes).
    Removing system_stm32f4xx.o(.revsh_text), (4 bytes).
    Removing system_stm32f4xx.o(.rrx_text), (6 bytes).
    Removing system_stm32f4xx.o(i.SystemCoreClockUpdate), (144 bytes).
    Removing system_stm32f4xx.o(.constdata), (16 bytes).
    Removing stm32f4xx_hal_pwr_ex.o(.rev16_text), (4 bytes).
    Removing stm32f4xx_hal_pwr_ex.o(.revsh_text), (4 bytes).
    Removing stm32f4xx_hal_pwr_ex.o(.rrx_text), (6 bytes).
    Removing stm32f4xx_hal_pwr_ex.o(i.HAL_PWREx_ControlVoltageScaling), (204 bytes).
    Removing stm32f4xx_hal_pwr_ex.o(i.HAL_PWREx_DisableBkUpReg), (80 bytes).
    Removing stm32f4xx_hal_pwr_ex.o(i.HAL_PWREx_DisableFlashPowerDown), (28 bytes).
    Removing stm32f4xx_hal_pwr_ex.o(i.HAL_PWREx_DisableOverDrive), (160 bytes).
    Removing stm32f4xx_hal_pwr_ex.o(i.HAL_PWREx_EnableBkUpReg), (76 bytes).
    Removing stm32f4xx_hal_pwr_ex.o(i.HAL_PWREx_EnableFlashPowerDown), (26 bytes).
    Removing stm32f4xx_hal_pwr_ex.o(i.HAL_PWREx_EnableOverDrive), (160 bytes).
    Removing stm32f4xx_hal_pwr_ex.o(i.HAL_PWREx_EnterUnderDriveSTOPMode), (152 bytes).
    Removing stm32f4xx_hal_pwr_ex.o(i.HAL_PWREx_GetVoltageRange), (16 bytes).
    Removing stm32f4xx_hal_ltdc.o(.rev16_text), (4 bytes).
    Removing stm32f4xx_hal_ltdc.o(.revsh_text), (4 bytes).
    Removing stm32f4xx_hal_ltdc.o(.rrx_text), (6 bytes).
    Removing stm32f4xx_hal_ltdc.o(i.HAL_LTDC_ConfigCLUT), (146 bytes).
    Removing stm32f4xx_hal_ltdc.o(i.HAL_LTDC_ConfigColorKeying), (74 bytes).
    Removing stm32f4xx_hal_ltdc.o(i.HAL_LTDC_DeInit), (26 bytes).
    Removing stm32f4xx_hal_ltdc.o(i.HAL_LTDC_DisableCLUT), (64 bytes).
    Removing stm32f4xx_hal_ltdc.o(i.HAL_LTDC_DisableColorKeying), (64 bytes).
    Removing stm32f4xx_hal_ltdc.o(i.HAL_LTDC_DisableDither), (52 bytes).
    Removing stm32f4xx_hal_ltdc.o(i.HAL_LTDC_EnableCLUT), (64 bytes).
    Removing stm32f4xx_hal_ltdc.o(i.HAL_LTDC_EnableColorKeying), (64 bytes).
    Removing stm32f4xx_hal_ltdc.o(i.HAL_LTDC_EnableDither), (52 bytes).
    Removing stm32f4xx_hal_ltdc.o(i.HAL_LTDC_ErrorCallback), (2 bytes).
    Removing stm32f4xx_hal_ltdc.o(i.HAL_LTDC_GetError), (6 bytes).
    Removing stm32f4xx_hal_ltdc.o(i.HAL_LTDC_GetState), (6 bytes).
    Removing stm32f4xx_hal_ltdc.o(i.HAL_LTDC_IRQHandler), (174 bytes).
    Removing stm32f4xx_hal_ltdc.o(i.HAL_LTDC_LineEventCallback), (2 bytes).
    Removing stm32f4xx_hal_ltdc.o(i.HAL_LTDC_MspDeInit), (2 bytes).
    Removing stm32f4xx_hal_ltdc.o(i.HAL_LTDC_MspInit), (2 bytes).
    Removing stm32f4xx_hal_ltdc.o(i.HAL_LTDC_ProgramLineEvent), (60 bytes).
    Removing stm32f4xx_hal_ltdc.o(i.HAL_LTDC_SetAddress), (68 bytes).
    Removing stm32f4xx_hal_ltdc.o(i.HAL_LTDC_SetAlpha), (68 bytes).
    Removing stm32f4xx_hal_ltdc.o(i.HAL_LTDC_SetPitch), (152 bytes).
    Removing stm32f4xx_hal_ltdc.o(i.HAL_LTDC_SetPixelFormat), (68 bytes).
    Removing stm32f4xx_hal_ltdc.o(i.HAL_LTDC_SetWindowPosition), (88 bytes).
    Removing stm32f4xx_hal_ltdc.o(i.HAL_LTDC_SetWindowSize), (88 bytes).
    Removing stm32f4xx_hal_dsi.o(.rev16_text), (4 bytes).
    Removing stm32f4xx_hal_dsi.o(.revsh_text), (4 bytes).
    Removing stm32f4xx_hal_dsi.o(.rrx_text), (6 bytes).
    Removing stm32f4xx_hal_dma.o(.rev16_text), (4 bytes).
    Removing stm32f4xx_hal_dma.o(.revsh_text), (4 bytes).
    Removing stm32f4xx_hal_dma.o(.rrx_text), (6 bytes).
    Removing stm32f4xx_hal_dma.o(i.HAL_DMA_DeInit), (94 bytes).
    Removing stm32f4xx_hal_dma.o(i.HAL_DMA_GetError), (4 bytes).
    Removing stm32f4xx_hal_dma.o(i.HAL_DMA_GetState), (6 bytes).
    Removing stm32f4xx_hal_dma.o(i.HAL_DMA_PollForTransfer), (364 bytes).
    Removing stm32f4xx_hal_dma.o(i.HAL_DMA_Start), (62 bytes).
    Removing stm32f4xx_hal_rcc_ex.o(.rev16_text), (4 bytes).
    Removing stm32f4xx_hal_rcc_ex.o(.revsh_text), (4 bytes).
    Removing stm32f4xx_hal_rcc_ex.o(.rrx_text), (6 bytes).
    Removing stm32f4xx_hal_rcc_ex.o(i.HAL_RCCEx_GetPeriphCLKConfig), (252 bytes).
    Removing stm32f4xx_hal_rcc_ex.o(i.HAL_RCC_DeInit), (96 bytes).
    Removing stm32f4xx_hal.o(.rev16_text), (4 bytes).
    Removing stm32f4xx_hal.o(.revsh_text), (4 bytes).
    Removing stm32f4xx_hal.o(.rrx_text), (6 bytes).
    Removing stm32f4xx_hal.o(i.HAL_DBGMCU_DisableDBGSleepMode), (16 bytes).
    Removing stm32f4xx_hal.o(i.HAL_DBGMCU_DisableDBGStandbyMode), (16 bytes).
    Removing stm32f4xx_hal.o(i.HAL_DBGMCU_DisableDBGStopMode), (16 bytes).
    Removing stm32f4xx_hal.o(i.HAL_DBGMCU_EnableDBGSleepMode), (16 bytes).
    Removing stm32f4xx_hal.o(i.HAL_DBGMCU_EnableDBGStandbyMode), (16 bytes).
    Removing stm32f4xx_hal.o(i.HAL_DBGMCU_EnableDBGStopMode), (16 bytes).
    Removing stm32f4xx_hal.o(i.HAL_DeInit), (56 bytes).
    Removing stm32f4xx_hal.o(i.HAL_DisableCompensationCell), (28 bytes).
    Removing stm32f4xx_hal.o(i.HAL_DisableMemorySwappingBank), (28 bytes).
    Removing stm32f4xx_hal.o(i.HAL_EnableCompensationCell), (26 bytes).
    Removing stm32f4xx_hal.o(i.HAL_EnableMemorySwappingBank), (26 bytes).
    Removing stm32f4xx_hal.o(i.HAL_GetDEVID), (16 bytes).
    Removing stm32f4xx_hal.o(i.HAL_GetHalVersion), (8 bytes).
    Removing stm32f4xx_hal.o(i.HAL_GetREVID), (12 bytes).
    Removing stm32f4xx_hal.o(i.HAL_MspDeInit), (2 bytes).
    Removing stm32f4xx_hal.o(i.HAL_MspInit), (2 bytes).
    Removing stm32f4xx_hal.o(i.HAL_ResumeTick), (14 bytes).
    Removing stm32f4xx_hal.o(i.HAL_SuspendTick), (14 bytes).
    Removing stm32f4xx_hal_cortex.o(.rev16_text), (4 bytes).
    Removing stm32f4xx_hal_cortex.o(.revsh_text), (4 bytes).
    Removing stm32f4xx_hal_cortex.o(.rrx_text), (6 bytes).
    Removing stm32f4xx_hal_cortex.o(i.HAL_MPU_ConfigRegion), (88 bytes).
    Removing stm32f4xx_hal_cortex.o(i.HAL_NVIC_ClearPendingIRQ), (24 bytes).
    Removing stm32f4xx_hal_cortex.o(i.HAL_NVIC_DisableIRQ), (24 bytes).
    Removing stm32f4xx_hal_cortex.o(i.HAL_NVIC_GetActive), (34 bytes).
    Removing stm32f4xx_hal_cortex.o(i.HAL_NVIC_GetPendingIRQ), (34 bytes).
    Removing stm32f4xx_hal_cortex.o(i.HAL_NVIC_GetPriority), (94 bytes).
    Removing stm32f4xx_hal_cortex.o(i.HAL_NVIC_GetPriorityGrouping), (16 bytes).
    Removing stm32f4xx_hal_cortex.o(i.HAL_NVIC_SetPendingIRQ), (24 bytes).
    Removing stm32f4xx_hal_cortex.o(i.HAL_NVIC_SystemReset), (36 bytes).
    Removing stm32f4xx_hal_ltdc_ex.o(.rev16_text), (4 bytes).
    Removing stm32f4xx_hal_ltdc_ex.o(.revsh_text), (4 bytes).
    Removing stm32f4xx_hal_ltdc_ex.o(.rrx_text), (6 bytes).
    Removing stm32f4xx_hal_flash_ex.o(.rev16_text), (4 bytes).
    Removing stm32f4xx_hal_flash_ex.o(.revsh_text), (4 bytes).
    Removing stm32f4xx_hal_flash_ex.o(.rrx_text), (6 bytes).
    Removing stm32f4xx_hal_flash_ex.o(i.FLASH_Erase_Sector), (96 bytes).
    Removing stm32f4xx_hal_flash_ex.o(i.FLASH_FlushCaches), (88 bytes).
    Removing stm32f4xx_hal_flash_ex.o(i.FLASH_MassErase), (68 bytes).
    Removing stm32f4xx_hal_flash_ex.o(i.FLASH_OB_BOR_LevelConfig), (24 bytes).
    Removing stm32f4xx_hal_flash_ex.o(i.FLASH_OB_BootConfig), (40 bytes).
    Removing stm32f4xx_hal_flash_ex.o(i.FLASH_OB_DisablePCROP), (84 bytes).
    Removing stm32f4xx_hal_flash_ex.o(i.FLASH_OB_DisableWRP), (116 bytes).
    Removing stm32f4xx_hal_flash_ex.o(i.FLASH_OB_EnablePCROP), (84 bytes).
    Removing stm32f4xx_hal_flash_ex.o(i.FLASH_OB_EnableWRP), (116 bytes).
    Removing stm32f4xx_hal_flash_ex.o(i.FLASH_OB_GetBOR), (16 bytes).
    Removing stm32f4xx_hal_flash_ex.o(i.FLASH_OB_GetRDP), (28 bytes).
    Removing stm32f4xx_hal_flash_ex.o(i.FLASH_OB_GetUser), (16 bytes).
    Removing stm32f4xx_hal_flash_ex.o(i.FLASH_OB_GetWRP), (12 bytes).
    Removing stm32f4xx_hal_flash_ex.o(i.FLASH_OB_RDP_LevelConfig), (28 bytes).
    Removing stm32f4xx_hal_flash_ex.o(i.FLASH_OB_UserConfig), (52 bytes).
    Removing stm32f4xx_hal_flash_ex.o(i.HAL_FLASHEx_AdvOBGetConfig), (32 bytes).
    Removing stm32f4xx_hal_flash_ex.o(i.HAL_FLASHEx_AdvOBProgram), (62 bytes).
    Removing stm32f4xx_hal_flash_ex.o(i.HAL_FLASHEx_Erase), (176 bytes).
    Removing stm32f4xx_hal_flash_ex.o(i.HAL_FLASHEx_Erase_IT), (120 bytes).
    Removing stm32f4xx_hal_flash_ex.o(i.HAL_FLASHEx_OBGetConfig), (34 bytes).
    Removing stm32f4xx_hal_flash_ex.o(i.HAL_FLASHEx_OBProgram), (120 bytes).
    Removing stm32f4xx_hal_flash_ex.o(i.HAL_FLASHEx_OB_DeSelectPCROP), (20 bytes).
    Removing stm32f4xx_hal_flash_ex.o(i.HAL_FLASHEx_OB_GetBank2WRP), (12 bytes).
    Removing stm32f4xx_hal_flash_ex.o(i.HAL_FLASHEx_OB_SelectPCROP), (24 bytes).
    Removing stm32f4xx_hal_rcc.o(.rev16_text), (4 bytes).
    Removing stm32f4xx_hal_rcc.o(.revsh_text), (4 bytes).
    Removing stm32f4xx_hal_rcc.o(.rrx_text), (6 bytes).
    Removing stm32f4xx_hal_rcc.o(i.HAL_RCC_CSSCallback), (2 bytes).
    Removing stm32f4xx_hal_rcc.o(i.HAL_RCC_DeInit), (2 bytes).
    Removing stm32f4xx_hal_rcc.o(i.HAL_RCC_DisableCSS), (12 bytes).
    Removing stm32f4xx_hal_rcc.o(i.HAL_RCC_EnableCSS), (12 bytes).
    Removing stm32f4xx_hal_rcc.o(i.HAL_RCC_GetClockConfig), (60 bytes).
    Removing stm32f4xx_hal_rcc.o(i.HAL_RCC_GetOscConfig), (272 bytes).
    Removing stm32f4xx_hal_rcc.o(i.HAL_RCC_GetPCLK1Freq), (44 bytes).
    Removing stm32f4xx_hal_rcc.o(i.HAL_RCC_GetPCLK2Freq), (44 bytes).
    Removing stm32f4xx_hal_rcc.o(i.HAL_RCC_MCOConfig), (156 bytes).
    Removing stm32f4xx_hal_rcc.o(i.HAL_RCC_NMI_IRQHandler), (32 bytes).
    Removing stm32f4xx_hal_gpio.o(.rev16_text), (4 bytes).
    Removing stm32f4xx_hal_gpio.o(.revsh_text), (4 bytes).
    Removing stm32f4xx_hal_gpio.o(.rrx_text), (6 bytes).
    Removing stm32f4xx_hal_gpio.o(i.HAL_GPIO_DeInit), (348 bytes).
    Removing stm32f4xx_hal_gpio.o(i.HAL_GPIO_EXTI_Callback), (2 bytes).
    Removing stm32f4xx_hal_gpio.o(i.HAL_GPIO_EXTI_IRQHandler), (24 bytes).
    Removing stm32f4xx_hal_gpio.o(i.HAL_GPIO_LockPin), (42 bytes).
    Removing stm32f4xx_hal_gpio.o(i.HAL_GPIO_ReadPin), (14 bytes).
    Removing stm32f4xx_hal_gpio.o(i.HAL_GPIO_TogglePin), (8 bytes).
    Removing stm32f4xx_hal_gpio.o(i.HAL_GPIO_WritePin), (14 bytes).
    Removing stm32f4xx_hal_dma_ex.o(.rev16_text), (4 bytes).
    Removing stm32f4xx_hal_dma_ex.o(.revsh_text), (4 bytes).
    Removing stm32f4xx_hal_dma_ex.o(.rrx_text), (6 bytes).
    Removing stm32f4xx_hal_dma_ex.o(i.DMA_MultiBufferSetConfig), (34 bytes).
    Removing stm32f4xx_hal_dma_ex.o(i.HAL_DMAEx_ChangeMemory), (16 bytes).
    Removing stm32f4xx_hal_dma_ex.o(i.HAL_DMAEx_MultiBufferStart), (102 bytes).
    Removing stm32f4xx_hal_dma_ex.o(i.HAL_DMAEx_MultiBufferStart_IT), (152 bytes).
    Removing stm32f4xx_hal_pwr.o(.rev16_text), (4 bytes).
    Removing stm32f4xx_hal_pwr.o(.revsh_text), (4 bytes).
    Removing stm32f4xx_hal_pwr.o(.rrx_text), (6 bytes).
    Removing stm32f4xx_hal_pwr.o(i.HAL_PWR_ConfigPVD), (148 bytes).
    Removing stm32f4xx_hal_pwr.o(i.HAL_PWR_DeInit), (24 bytes).
    Removing stm32f4xx_hal_pwr.o(i.HAL_PWR_DisableBkUpAccess), (28 bytes).
    Removing stm32f4xx_hal_pwr.o(i.HAL_PWR_DisablePVD), (26 bytes).
    Removing stm32f4xx_hal_pwr.o(i.HAL_PWR_DisableSEVOnPend), (16 bytes).
    Removing stm32f4xx_hal_pwr.o(i.HAL_PWR_DisableSleepOnExit), (16 bytes).
    Removing stm32f4xx_hal_pwr.o(i.HAL_PWR_DisableWakeUpPin), (16 bytes).
    Removing stm32f4xx_hal_pwr.o(i.HAL_PWR_EnableBkUpAccess), (26 bytes).
    Removing stm32f4xx_hal_pwr.o(i.HAL_PWR_EnablePVD), (26 bytes).
    Removing stm32f4xx_hal_pwr.o(i.HAL_PWR_EnableSEVOnPend), (16 bytes).
    Removing stm32f4xx_hal_pwr.o(i.HAL_PWR_EnableSleepOnExit), (16 bytes).
    Removing stm32f4xx_hal_pwr.o(i.HAL_PWR_EnableWakeUpPin), (16 bytes).
    Removing stm32f4xx_hal_pwr.o(i.HAL_PWR_EnterSLEEPMode), (32 bytes).
    Removing stm32f4xx_hal_pwr.o(i.HAL_PWR_EnterSTANDBYMode), (32 bytes).
    Removing stm32f4xx_hal_pwr.o(i.HAL_PWR_EnterSTOPMode), (56 bytes).
    Removing stm32f4xx_hal_pwr.o(i.HAL_PWR_PVDCallback), (2 bytes).
    Removing stm32f4xx_hal_pwr.o(i.HAL_PWR_PVD_IRQHandler), (28 bytes).
    Removing stm32f4xx_hal_flash_ramfunc.o(.rev16_text), (4 bytes).
    Removing stm32f4xx_hal_flash_ramfunc.o(.revsh_text), (4 bytes).
    Removing stm32f4xx_hal_flash_ramfunc.o(.rrx_text), (6 bytes).
    Removing stm32f4xx_hal_flash.o(.rev16_text), (4 bytes).
    Removing stm32f4xx_hal_flash.o(.revsh_text), (4 bytes).
    Removing stm32f4xx_hal_flash.o(.rrx_text), (6 bytes).
    Removing stm32f4xx_hal_flash.o(i.FLASH_Program_Byte), (32 bytes).
    Removing stm32f4xx_hal_flash.o(i.FLASH_Program_DoubleWord), (48 bytes).
    Removing stm32f4xx_hal_flash.o(i.FLASH_Program_HalfWord), (36 bytes).
    Removing stm32f4xx_hal_flash.o(i.FLASH_Program_Word), (36 bytes).
    Removing stm32f4xx_hal_flash.o(i.FLASH_SetErrorCode), (136 bytes).
    Removing stm32f4xx_hal_flash.o(i.FLASH_WaitForLastOperation), (96 bytes).
    Removing stm32f4xx_hal_flash.o(i.HAL_FLASH_EndOfOperationCallback), (2 bytes).
    Removing stm32f4xx_hal_flash.o(i.HAL_FLASH_GetError), (12 bytes).
    Removing stm32f4xx_hal_flash.o(i.HAL_FLASH_IRQHandler), (212 bytes).
    Removing stm32f4xx_hal_flash.o(i.HAL_FLASH_Lock), (20 bytes).
    Removing stm32f4xx_hal_flash.o(i.HAL_FLASH_OB_Launch), (24 bytes).
    Removing stm32f4xx_hal_flash.o(i.HAL_FLASH_OB_Lock), (20 bytes).
    Removing stm32f4xx_hal_flash.o(i.HAL_FLASH_OB_Unlock), (44 bytes).
    Removing stm32f4xx_hal_flash.o(i.HAL_FLASH_OperationErrorCallback), (2 bytes).
    Removing stm32f4xx_hal_flash.o(i.HAL_FLASH_Program), (128 bytes).
    Removing stm32f4xx_hal_flash.o(i.HAL_FLASH_Program_IT), (116 bytes).
    Removing stm32f4xx_hal_flash.o(i.HAL_FLASH_Unlock), (44 bytes).
    Removing stm32f4xx_hal_flash.o(.bss), (32 bytes).
    Removing stm32f4xx_ll_fmc.o(.rev16_text), (4 bytes).
    Removing stm32f4xx_ll_fmc.o(.revsh_text), (4 bytes).
    Removing stm32f4xx_ll_fmc.o(.rrx_text), (6 bytes).
    Removing stm32f4xx_ll_fmc.o(i.FMC_NAND_AttributeSpace_Timing_Init), (48 bytes).
    Removing stm32f4xx_ll_fmc.o(i.FMC_NAND_CommonSpace_Timing_Init), (48 bytes).
    Removing stm32f4xx_ll_fmc.o(i.FMC_NAND_DeInit), (62 bytes).
    Removing stm32f4xx_ll_fmc.o(i.FMC_NAND_ECC_Disable), (26 bytes).
    Removing stm32f4xx_ll_fmc.o(i.FMC_NAND_ECC_Enable), (26 bytes).
    Removing stm32f4xx_ll_fmc.o(i.FMC_NAND_GetECC), (110 bytes).
    Removing stm32f4xx_ll_fmc.o(i.FMC_NAND_Init), (88 bytes).
    Removing stm32f4xx_ll_fmc.o(i.FMC_NORSRAM_DeInit), (52 bytes).
    Removing stm32f4xx_ll_fmc.o(i.FMC_NORSRAM_Extended_Timing_Init), (84 bytes).
    Removing stm32f4xx_ll_fmc.o(i.FMC_NORSRAM_Init), (120 bytes).
    Removing stm32f4xx_ll_fmc.o(i.FMC_NORSRAM_Timing_Init), (96 bytes).
    Removing stm32f4xx_ll_fmc.o(i.FMC_NORSRAM_WriteOperation_Disable), (16 bytes).
    Removing stm32f4xx_ll_fmc.o(i.FMC_NORSRAM_WriteOperation_Enable), (16 bytes).
    Removing stm32f4xx_ll_fmc.o(i.FMC_PCCARD_AttributeSpace_Timing_Init), (28 bytes).
    Removing stm32f4xx_ll_fmc.o(i.FMC_PCCARD_CommonSpace_Timing_Init), (28 bytes).
    Removing stm32f4xx_ll_fmc.o(i.FMC_PCCARD_DeInit), (30 bytes).
    Removing stm32f4xx_ll_fmc.o(i.FMC_PCCARD_IOSpace_Timing_Init), (28 bytes).
    Removing stm32f4xx_ll_fmc.o(i.FMC_PCCARD_Init), (38 bytes).
    Removing stm32f4xx_ll_fmc.o(i.FMC_SDRAM_DeInit), (30 bytes).
    Removing stm32f4xx_ll_fmc.o(i.FMC_SDRAM_GetModeStatus), (22 bytes).
    Removing stm32f4xx_ll_fmc.o(i.FMC_SDRAM_SetAutoRefreshNumber), (12 bytes).
    Removing stm32f4xx_ll_fmc.o(i.FMC_SDRAM_WriteProtection_Disable), (16 bytes).
    Removing stm32f4xx_ll_fmc.o(i.FMC_SDRAM_WriteProtection_Enable), (16 bytes).
    Removing stm32f4xx_hal_sdram.o(.rev16_text), (4 bytes).
    Removing stm32f4xx_hal_sdram.o(.revsh_text), (4 bytes).
    Removing stm32f4xx_hal_sdram.o(.rrx_text), (6 bytes).
    Removing stm32f4xx_hal_sdram.o(i.HAL_SDRAM_DMA_XferCpltCallback), (2 bytes).
    Removing stm32f4xx_hal_sdram.o(i.HAL_SDRAM_DMA_XferErrorCallback), (2 bytes).
    Removing stm32f4xx_hal_sdram.o(i.HAL_SDRAM_DeInit), (30 bytes).
    Removing stm32f4xx_hal_sdram.o(i.HAL_SDRAM_GetModeStatus), (8 bytes).
    Removing stm32f4xx_hal_sdram.o(i.HAL_SDRAM_GetState), (6 bytes).
    Removing stm32f4xx_hal_sdram.o(i.HAL_SDRAM_IRQHandler), (32 bytes).
    Removing stm32f4xx_hal_sdram.o(i.HAL_SDRAM_MspDeInit), (2 bytes).
    Removing stm32f4xx_hal_sdram.o(i.HAL_SDRAM_MspInit), (2 bytes).
    Removing stm32f4xx_hal_sdram.o(i.HAL_SDRAM_Read_16b), (80 bytes).
    Removing stm32f4xx_hal_sdram.o(i.HAL_SDRAM_Read_32b), (80 bytes).
    Removing stm32f4xx_hal_sdram.o(i.HAL_SDRAM_Read_8b), (80 bytes).
    Removing stm32f4xx_hal_sdram.o(i.HAL_SDRAM_Read_DMA), (84 bytes).
    Removing stm32f4xx_hal_sdram.o(i.HAL_SDRAM_RefreshErrorCallback), (2 bytes).
    Removing stm32f4xx_hal_sdram.o(i.HAL_SDRAM_SetAutoRefreshNumber), (38 bytes).
    Removing stm32f4xx_hal_sdram.o(i.HAL_SDRAM_WriteProtection_Disable), (40 bytes).
    Removing stm32f4xx_hal_sdram.o(i.HAL_SDRAM_WriteProtection_Enable), (40 bytes).
    Removing stm32f4xx_hal_sdram.o(i.HAL_SDRAM_Write_16b), (82 bytes).
    Removing stm32f4xx_hal_sdram.o(i.HAL_SDRAM_Write_32b), (82 bytes).
    Removing stm32f4xx_hal_sdram.o(i.HAL_SDRAM_Write_8b), (82 bytes).
    Removing stm32f4xx_hal_sdram.o(i.HAL_SDRAM_Write_DMA), (88 bytes).
    Removing stm32f4xx_hal_dma2d.o(.rev16_text), (4 bytes).
    Removing stm32f4xx_hal_dma2d.o(.revsh_text), (4 bytes).
    Removing stm32f4xx_hal_dma2d.o(.rrx_text), (6 bytes).
    Removing stm32f4xx_hal_dma2d.o(i.HAL_DMA2D_Abort), (90 bytes).
    Removing stm32f4xx_hal_dma2d.o(i.HAL_DMA2D_BlendingStart), (76 bytes).
    Removing stm32f4xx_hal_dma2d.o(i.HAL_DMA2D_BlendingStart_IT), (106 bytes).
    Removing stm32f4xx_hal_dma2d.o(i.HAL_DMA2D_ConfigCLUT), (78 bytes).
    Removing stm32f4xx_hal_dma2d.o(i.HAL_DMA2D_DeInit), (32 bytes).
    Removing stm32f4xx_hal_dma2d.o(i.HAL_DMA2D_DisableCLUT), (28 bytes).
    Removing stm32f4xx_hal_dma2d.o(i.HAL_DMA2D_EnableCLUT), (28 bytes).
    Removing stm32f4xx_hal_dma2d.o(i.HAL_DMA2D_GetError), (4 bytes).
    Removing stm32f4xx_hal_dma2d.o(i.HAL_DMA2D_GetState), (6 bytes).
    Removing stm32f4xx_hal_dma2d.o(i.HAL_DMA2D_IRQHandler), (190 bytes).
    Removing stm32f4xx_hal_dma2d.o(i.HAL_DMA2D_MspDeInit), (2 bytes).
    Removing stm32f4xx_hal_dma2d.o(i.HAL_DMA2D_MspInit), (2 bytes).
    Removing stm32f4xx_hal_dma2d.o(i.HAL_DMA2D_ProgramLineEvent), (48 bytes).
    Removing stm32f4xx_hal_dma2d.o(i.HAL_DMA2D_Resume), (20 bytes).
    Removing stm32f4xx_hal_dma2d.o(i.HAL_DMA2D_Start_IT), (96 bytes).
    Removing stm32f4xx_hal_dma2d.o(i.HAL_DMA2D_Suspend), (78 bytes).
    Removing stm32f4xx_hal_adc.o(.rev16_text), (4 bytes).
    Removing stm32f4xx_hal_adc.o(.revsh_text), (4 bytes).
    Removing stm32f4xx_hal_adc.o(.rrx_text), (6 bytes).
    Removing stm32f4xx_hal_uart.o(.rev16_text), (4 bytes).
    Removing stm32f4xx_hal_uart.o(.revsh_text), (4 bytes).
    Removing stm32f4xx_hal_uart.o(.rrx_text), (6 bytes).
    Removing stm32f4xx_hal_adc_ex.o(.rev16_text), (4 bytes).
    Removing stm32f4xx_hal_adc_ex.o(.revsh_text), (4 bytes).
    Removing stm32f4xx_hal_adc_ex.o(.rrx_text), (6 bytes).
    Removing stm32f4xx_hal_pcd_ex.o(.rev16_text), (4 bytes).
    Removing stm32f4xx_hal_pcd_ex.o(.revsh_text), (4 bytes).
    Removing stm32f4xx_hal_pcd_ex.o(.rrx_text), (6 bytes).
    Removing stm32f4xx_ll_usb.o(.rev16_text), (4 bytes).
    Removing stm32f4xx_ll_usb.o(.revsh_text), (4 bytes).
    Removing stm32f4xx_ll_usb.o(.rrx_text), (6 bytes).
    Removing stm32f4xx_ll_usb.o(i.USB_ActivateDedicatedEndpoint), (240 bytes).
    Removing stm32f4xx_ll_usb.o(i.USB_ClearInterrupts), (8 bytes).
    Removing stm32f4xx_ll_usb.o(i.USB_DeactivateDedicatedEndpoint), (86 bytes).
    Removing stm32f4xx_ll_usb.o(i.USB_DoPing), (72 bytes).
    Removing stm32f4xx_ll_usb.o(i.USB_DriveVbus), (64 bytes).
    Removing stm32f4xx_ll_usb.o(i.USB_GetCurrentFrame), (8 bytes).
    Removing stm32f4xx_ll_usb.o(i.USB_GetHostSpeed), (18 bytes).
    Removing stm32f4xx_ll_usb.o(i.USB_HC_Halt), (392 bytes).
    Removing stm32f4xx_ll_usb.o(i.USB_HC_Init), (254 bytes).
    Removing stm32f4xx_ll_usb.o(i.USB_HC_ReadInterrupt), (10 bytes).
    Removing stm32f4xx_ll_usb.o(i.USB_HC_StartXfer), (408 bytes).
    Removing stm32f4xx_ll_usb.o(i.USB_HostInit), (224 bytes).
    Removing stm32f4xx_ll_usb.o(i.USB_InitFSLSPClkSel), (58 bytes).
    Removing stm32f4xx_ll_usb.o(i.USB_ResetPort), (48 bytes).
    Removing stm32f4xx_ll_usb.o(i.USB_StopDevice), (66 bytes).
    Removing stm32f4xx_ll_usb.o(i.USB_StopHost), (170 bytes).
    Removing stm32f4xx_ll_usb.o(.data), (4 bytes).
    Removing stm32f4xx_hal_pcd.o(.rev16_text), (4 bytes).
    Removing stm32f4xx_hal_pcd.o(.revsh_text), (4 bytes).
    Removing stm32f4xx_hal_pcd.o(.rrx_text), (6 bytes).
    Removing stm32f4xx_hal_pcd.o(i.HAL_PCD_ActivateRemoteWakeup), (28 bytes).
    Removing stm32f4xx_hal_pcd.o(i.HAL_PCD_ConnectCallback), (2 bytes).
    Removing stm32f4xx_hal_pcd.o(i.HAL_PCD_DataInStageCallback), (2 bytes).
    Removing stm32f4xx_hal_pcd.o(i.HAL_PCD_DataOutStageCallback), (2 bytes).
    Removing stm32f4xx_hal_pcd.o(i.HAL_PCD_DeActivateRemoteWakeup), (18 bytes).
    Removing stm32f4xx_hal_pcd.o(i.HAL_PCD_DeInit), (38 bytes).
    Removing stm32f4xx_hal_pcd.o(i.HAL_PCD_DevConnect), (36 bytes).
    Removing stm32f4xx_hal_pcd.o(i.HAL_PCD_DevDisconnect), (36 bytes).
    Removing stm32f4xx_hal_pcd.o(i.HAL_PCD_DisconnectCallback), (2 bytes).
    Removing stm32f4xx_hal_pcd.o(i.HAL_PCD_GetState), (6 bytes).
    Removing stm32f4xx_hal_pcd.o(i.HAL_PCD_ISOINIncompleteCallback), (2 bytes).
    Removing stm32f4xx_hal_pcd.o(i.HAL_PCD_ISOOUTIncompleteCallback), (2 bytes).
    Removing stm32f4xx_hal_pcd.o(i.HAL_PCD_MspDeInit), (2 bytes).
    Removing stm32f4xx_hal_pcd.o(i.HAL_PCD_MspInit), (2 bytes).
    Removing stm32f4xx_hal_pcd.o(i.HAL_PCD_ResetCallback), (2 bytes).
    Removing stm32f4xx_hal_pcd.o(i.HAL_PCD_ResumeCallback), (2 bytes).
    Removing stm32f4xx_hal_pcd.o(i.HAL_PCD_SOFCallback), (2 bytes).
    Removing stm32f4xx_hal_pcd.o(i.HAL_PCD_SetupStageCallback), (2 bytes).
    Removing stm32f4xx_hal_pcd.o(i.HAL_PCD_Stop), (48 bytes).
    Removing stm32f4xx_hal_pcd.o(i.HAL_PCD_SuspendCallback), (2 bytes).
    Removing stm32f4xx_ll_sdmmc.o(.rev16_text), (4 bytes).
    Removing stm32f4xx_ll_sdmmc.o(.revsh_text), (4 bytes).
    Removing stm32f4xx_ll_sdmmc.o(.rrx_text), (6 bytes).
    Removing stm32f4xx_ll_sdmmc.o(i.SDIO_GetDataCounter), (4 bytes).
    Removing stm32f4xx_ll_sdmmc.o(i.SDIO_GetFIFOCount), (6 bytes).
    Removing stm32f4xx_ll_sdmmc.o(i.SDIO_PowerState_OFF), (8 bytes).
    Removing stm32f4xx_ll_sdmmc.o(i.SDIO_SetSDIOReadWaitMode), (12 bytes).
    Removing stm32f4xx_ll_sdmmc.o(i.SDIO_WriteFIFO), (10 bytes).
    Removing stm32f4xx_hal_sd.o(.rev16_text), (4 bytes).
    Removing stm32f4xx_hal_sd.o(.revsh_text), (4 bytes).
    Removing stm32f4xx_hal_sd.o(.rrx_text), (6 bytes).
    Removing stm32f4xx_hal_sd.o(i.HAL_SD_DeInit), (20 bytes).
    Removing stm32f4xx_hal_sd.o(i.HAL_SD_Erase), (288 bytes).
    Removing stm32f4xx_hal_sd.o(i.HAL_SD_GetCardStatus), (114 bytes).
    Removing stm32f4xx_hal_sd.o(i.HAL_SD_HighSpeed), (396 bytes).
    Removing stm32f4xx_hal_sd.o(i.HAL_SD_MspDeInit), (2 bytes).
    Removing stm32f4xx_hal_sd.o(i.HAL_SD_MspInit), (2 bytes).
    Removing stm32f4xx_hal_sd.o(i.HAL_SD_ReadBlocks), (472 bytes).
    Removing stm32f4xx_hal_sd.o(i.HAL_SD_SendSDStatus), (344 bytes).
    Removing stm32f4xx_hal_sd.o(i.HAL_SD_WriteBlocks), (580 bytes).
    Removing stm32f4xx_hal_sd.o(i.SD_IsCardProgramming), (420 bytes).
    Removing stm32f4xx_hal_sd.o(i.SD_PowerOFF), (14 bytes).
    Removing usbd_msc.o(.rev16_text), (4 bytes).
    Removing usbd_msc.o(.revsh_text), (4 bytes).
    Removing usbd_msc.o(.rrx_text), (6 bytes).
    Removing usbd_msc_data.o(.rev16_text), (4 bytes).
    Removing usbd_msc_data.o(.revsh_text), (4 bytes).
    Removing usbd_msc_data.o(.rrx_text), (6 bytes).
    Removing usbd_msc_bot.o(.rev16_text), (4 bytes).
    Removing usbd_msc_bot.o(.revsh_text), (4 bytes).
    Removing usbd_msc_bot.o(.rrx_text), (6 bytes).
    Removing usbd_msc_scsi.o(.rev16_text), (4 bytes).
    Removing usbd_msc_scsi.o(.revsh_text), (4 bytes).
    Removing usbd_msc_scsi.o(.rrx_text), (6 bytes).
    Removing usbd_ctlreq.o(.rev16_text), (4 bytes).
    Removing usbd_ctlreq.o(.revsh_text), (4 bytes).
    Removing usbd_ctlreq.o(.rrx_text), (6 bytes).
    Removing usbd_core.o(.rev16_text), (4 bytes).
    Removing usbd_core.o(.revsh_text), (4 bytes).
    Removing usbd_core.o(.rrx_text), (6 bytes).
    Removing usbd_core.o(i.USBD_DeInit), (38 bytes).
    Removing usbd_core.o(i.USBD_Stop), (26 bytes).
    Removing usbd_ioreq.o(.rev16_text), (4 bytes).
    Removing usbd_ioreq.o(.revsh_text), (4 bytes).
    Removing usbd_ioreq.o(.rrx_text), (6 bytes).
    Removing usbd_ioreq.o(i.USBD_CtlPrepareRx), (30 bytes).
    Removing usbd_ioreq.o(i.USBD_GetRxCount), (10 bytes).

480 unused section(s) (total 40504 bytes) removed from the image.

==============================================================================

Image Symbol Table

    Local Symbols

    Symbol Name                              Value     Ov Type        Size  Object(Section)

    ../Drivers/CMSIS/Device/ST/STM32F4xx/Source/Templates/arm/startup_stm32f429xx.s 0x00000000   Number         0  startup_stm32f429xx.o ABSOLUTE
    ../Drivers/CMSIS/Device/ST/STM32F4xx/Source/Templates/system_stm32f4xx.c 0x00000000   Number         0  system_stm32f4xx.o ABSOLUTE
    ../Drivers/STM32F4xx_HAL_Driver/Src/stm32f4xx_hal.c 0x00000000   Number         0  stm32f4xx_hal.o ABSOLUTE
    ../Drivers/STM32F4xx_HAL_Driver/Src/stm32f4xx_hal_adc.c 0x00000000   Number         0  stm32f4xx_hal_adc.o ABSOLUTE
    ../Drivers/STM32F4xx_HAL_Driver/Src/stm32f4xx_hal_adc_ex.c 0x00000000   Number         0  stm32f4xx_hal_adc_ex.o ABSOLUTE
    ../Drivers/STM32F4xx_HAL_Driver/Src/stm32f4xx_hal_cortex.c 0x00000000   Number         0  stm32f4xx_hal_cortex.o ABSOLUTE
    ../Drivers/STM32F4xx_HAL_Driver/Src/stm32f4xx_hal_dma.c 0x00000000   Number         0  stm32f4xx_hal_dma.o ABSOLUTE
    ../Drivers/STM32F4xx_HAL_Driver/Src/stm32f4xx_hal_dma2d.c 0x00000000   Number         0  stm32f4xx_hal_dma2d.o ABSOLUTE
    ../Drivers/STM32F4xx_HAL_Driver/Src/stm32f4xx_hal_dma_ex.c 0x00000000   Number         0  stm32f4xx_hal_dma_ex.o ABSOLUTE
    ../Drivers/STM32F4xx_HAL_Driver/Src/stm32f4xx_hal_dsi.c 0x00000000   Number         0  stm32f4xx_hal_dsi.o ABSOLUTE
    ../Drivers/STM32F4xx_HAL_Driver/Src/stm32f4xx_hal_flash.c 0x00000000   Number         0  stm32f4xx_hal_flash.o ABSOLUTE
    ../Drivers/STM32F4xx_HAL_Driver/Src/stm32f4xx_hal_flash_ex.c 0x00000000   Number         0  stm32f4xx_hal_flash_ex.o ABSOLUTE
    ../Drivers/STM32F4xx_HAL_Driver/Src/stm32f4xx_hal_flash_ramfunc.c 0x00000000   Number         0  stm32f4xx_hal_flash_ramfunc.o ABSOLUTE
    ../Drivers/STM32F4xx_HAL_Driver/Src/stm32f4xx_hal_gpio.c 0x00000000   Number         0  stm32f4xx_hal_gpio.o ABSOLUTE
    ../Drivers/STM32F4xx_HAL_Driver/Src/stm32f4xx_hal_ltdc.c 0x00000000   Number         0  stm32f4xx_hal_ltdc.o ABSOLUTE
    ../Drivers/STM32F4xx_HAL_Driver/Src/stm32f4xx_hal_ltdc_ex.c 0x00000000   Number         0  stm32f4xx_hal_ltdc_ex.o ABSOLUTE
    ../Drivers/STM32F4xx_HAL_Driver/Src/stm32f4xx_hal_pcd.c 0x00000000   Number         0  stm32f4xx_hal_pcd.o ABSOLUTE
    ../Drivers/STM32F4xx_HAL_Driver/Src/stm32f4xx_hal_pcd_ex.c 0x00000000   Number         0  stm32f4xx_hal_pcd_ex.o ABSOLUTE
    ../Drivers/STM32F4xx_HAL_Driver/Src/stm32f4xx_hal_pwr.c 0x00000000   Number         0  stm32f4xx_hal_pwr.o ABSOLUTE
    ../Drivers/STM32F4xx_HAL_Driver/Src/stm32f4xx_hal_pwr_ex.c 0x00000000   Number         0  stm32f4xx_hal_pwr_ex.o ABSOLUTE
    ../Drivers/STM32F4xx_HAL_Driver/Src/stm32f4xx_hal_rcc.c 0x00000000   Number         0  stm32f4xx_hal_rcc.o ABSOLUTE
    ../Drivers/STM32F4xx_HAL_Driver/Src/stm32f4xx_hal_rcc_ex.c 0x00000000   Number         0  stm32f4xx_hal_rcc_ex.o ABSOLUTE
    ../Drivers/STM32F4xx_HAL_Driver/Src/stm32f4xx_hal_sd.c 0x00000000   Number         0  stm32f4xx_hal_sd.o ABSOLUTE
    ../Drivers/STM32F4xx_HAL_Driver/Src/stm32f4xx_hal_sdram.c 0x00000000   Number         0  stm32f4xx_hal_sdram.o ABSOLUTE
    ../Drivers/STM32F4xx_HAL_Driver/Src/stm32f4xx_hal_uart.c 0x00000000   Number         0  stm32f4xx_hal_uart.o ABSOLUTE
    ../Drivers/STM32F4xx_HAL_Driver/Src/stm32f4xx_ll_fmc.c 0x00000000   Number         0  stm32f4xx_ll_fmc.o ABSOLUTE
    ../Drivers/STM32F4xx_HAL_Driver/Src/stm32f4xx_ll_sdmmc.c 0x00000000   Number         0  stm32f4xx_ll_sdmmc.o ABSOLUTE
    ../Drivers/STM32F4xx_HAL_Driver/Src/stm32f4xx_ll_usb.c 0x00000000   Number         0  stm32f4xx_ll_usb.o ABSOLUTE
    ../Middlewares/ST/STM32_USB_Device_Library/Class/MSC/Src/usbd_msc.c 0x00000000   Number         0  usbd_msc.o ABSOLUTE
    ../Middlewares/ST/STM32_USB_Device_Library/Class/MSC/Src/usbd_msc_bot.c 0x00000000   Number         0  usbd_msc_bot.o ABSOLUTE
    ../Middlewares/ST/STM32_USB_Device_Library/Class/MSC/Src/usbd_msc_data.c 0x00000000   Number         0  usbd_msc_data.o ABSOLUTE
    ../Middlewares/ST/STM32_USB_Device_Library/Class/MSC/Src/usbd_msc_scsi.c 0x00000000   Number         0  usbd_msc_scsi.o ABSOLUTE
    ../Middlewares/ST/STM32_USB_Device_Library/Core/Src/usbd_core.c 0x00000000   Number         0  usbd_core.o ABSOLUTE
    ../Middlewares/ST/STM32_USB_Device_Library/Core/Src/usbd_ctlreq.c 0x00000000   Number         0  usbd_ctlreq.o ABSOLUTE
    ../Middlewares/ST/STM32_USB_Device_Library/Core/Src/usbd_ioreq.c 0x00000000   Number         0  usbd_ioreq.o ABSOLUTE
    ../Src/dma.c                             0x00000000   Number         0  dma.o ABSOLUTE
    ../Src/dma2d.c                           0x00000000   Number         0  dma2d.o ABSOLUTE
    ../Src/fmc.c                             0x00000000   Number         0  fmc.o ABSOLUTE
    ../Src/gpio.c                            0x00000000   Number         0  gpio.o ABSOLUTE
    ../Src/ltdc.c                            0x00000000   Number         0  ltdc.o ABSOLUTE
    ../Src/main.c                            0x00000000   Number         0  main.o ABSOLUTE
    ../Src/sdio.c                            0x00000000   Number         0  sdio.o ABSOLUTE
    ../Src/stm32f4xx_hal_msp.c               0x00000000   Number         0  stm32f4xx_hal_msp.o ABSOLUTE
    ../Src/stm32f4xx_it.c                    0x00000000   Number         0  stm32f4xx_it.o ABSOLUTE
    ../Src/usb_device.c                      0x00000000   Number         0  usb_device.o ABSOLUTE
    ../Src/usbd_conf.c                       0x00000000   Number         0  usbd_conf.o ABSOLUTE
    ../Src/usbd_desc.c                       0x00000000   Number         0  usbd_desc.o ABSOLUTE
    ../Src/usbd_storage_if.c                 0x00000000   Number         0  usbd_storage_if.o ABSOLUTE
    ../clib/../cmprslib/zerorunl2.c          0x00000000   Number         0  __dczerorl2.o ABSOLUTE
    ../clib/microlib/init/entry.s            0x00000000   Number         0  entry7b.o ABSOLUTE
    ../clib/microlib/init/entry.s            0x00000000   Number         0  entry7a.o ABSOLUTE
    ../clib/microlib/init/entry.s            0x00000000   Number         0  entry5.o ABSOLUTE
    ../clib/microlib/init/entry.s            0x00000000   Number         0  entry2.o ABSOLUTE
    ../clib/microlib/init/entry.s            0x00000000   Number         0  entry9b.o ABSOLUTE
    ../clib/microlib/init/entry.s            0x00000000   Number         0  entry10a.o ABSOLUTE
    ../clib/microlib/init/entry.s            0x00000000   Number         0  entry10b.o ABSOLUTE
    ../clib/microlib/init/entry.s            0x00000000   Number         0  entry9a.o ABSOLUTE
    ../clib/microlib/init/entry.s            0x00000000   Number         0  entry11a.o ABSOLUTE
    ../clib/microlib/init/entry.s            0x00000000   Number         0  entry11b.o ABSOLUTE
    ../clib/microlib/init/entry.s            0x00000000   Number         0  entry8a.o ABSOLUTE
    ../clib/microlib/init/entry.s            0x00000000   Number         0  entry.o ABSOLUTE
    ../clib/microlib/init/entry.s            0x00000000   Number         0  entry8b.o ABSOLUTE
    ../clib/microlib/malloc/malloc.c         0x00000000   Number         0  mallocra.o ABSOLUTE
    ../clib/microlib/malloc/malloc.c         0x00000000   Number         0  malloca.o ABSOLUTE
    ../clib/microlib/malloc/malloc.c         0x00000000   Number         0  mallocr.o ABSOLUTE
    ../clib/microlib/malloc/malloc.c         0x00000000   Number         0  malloc.o ABSOLUTE
    ../clib/microlib/malloc/mvars.c          0x00000000   Number         0  mvars.o ABSOLUTE
    ../clib/microlib/string/memcpy.c         0x00000000   Number         0  memcpya.o ABSOLUTE
    ../clib/microlib/string/memcpy.c         0x00000000   Number         0  memcpyb.o ABSOLUTE
    ..\BSP\stm324x9i_lcd.c                   0x00000000   Number         0  stm324x9i_lcd.o ABSOLUTE
    ..\BSP\stm324x9i_sdram.c                 0x00000000   Number         0  stm324x9i_sdram.o ABSOLUTE
    ..\Drivers\CMSIS\Device\ST\STM32F4xx\Source\Templates\system_stm32f4xx.c 0x00000000   Number         0  system_stm32f4xx.o ABSOLUTE
    ..\Drivers\STM32F4xx_HAL_Driver\Src\stm32f4xx_hal.c 0x00000000   Number         0  stm32f4xx_hal.o ABSOLUTE
    ..\Drivers\STM32F4xx_HAL_Driver\Src\stm32f4xx_hal_adc.c 0x00000000   Number         0  stm32f4xx_hal_adc.o ABSOLUTE
    ..\Drivers\STM32F4xx_HAL_Driver\Src\stm32f4xx_hal_adc_ex.c 0x00000000   Number         0  stm32f4xx_hal_adc_ex.o ABSOLUTE
    ..\Drivers\STM32F4xx_HAL_Driver\Src\stm32f4xx_hal_cortex.c 0x00000000   Number         0  stm32f4xx_hal_cortex.o ABSOLUTE
    ..\Drivers\STM32F4xx_HAL_Driver\Src\stm32f4xx_hal_dma.c 0x00000000   Number         0  stm32f4xx_hal_dma.o ABSOLUTE
    ..\Drivers\STM32F4xx_HAL_Driver\Src\stm32f4xx_hal_dma2d.c 0x00000000   Number         0  stm32f4xx_hal_dma2d.o ABSOLUTE
    ..\Drivers\STM32F4xx_HAL_Driver\Src\stm32f4xx_hal_dma_ex.c 0x00000000   Number         0  stm32f4xx_hal_dma_ex.o ABSOLUTE
    ..\Drivers\STM32F4xx_HAL_Driver\Src\stm32f4xx_hal_dsi.c 0x00000000   Number         0  stm32f4xx_hal_dsi.o ABSOLUTE
    ..\Drivers\STM32F4xx_HAL_Driver\Src\stm32f4xx_hal_flash.c 0x00000000   Number         0  stm32f4xx_hal_flash.o ABSOLUTE
    ..\Drivers\STM32F4xx_HAL_Driver\Src\stm32f4xx_hal_flash_ex.c 0x00000000   Number         0  stm32f4xx_hal_flash_ex.o ABSOLUTE
    ..\Drivers\STM32F4xx_HAL_Driver\Src\stm32f4xx_hal_flash_ramfunc.c 0x00000000   Number         0  stm32f4xx_hal_flash_ramfunc.o ABSOLUTE
    ..\Drivers\STM32F4xx_HAL_Driver\Src\stm32f4xx_hal_gpio.c 0x00000000   Number         0  stm32f4xx_hal_gpio.o ABSOLUTE
    ..\Drivers\STM32F4xx_HAL_Driver\Src\stm32f4xx_hal_ltdc.c 0x00000000   Number         0  stm32f4xx_hal_ltdc.o ABSOLUTE
    ..\Drivers\STM32F4xx_HAL_Driver\Src\stm32f4xx_hal_ltdc_ex.c 0x00000000   Number         0  stm32f4xx_hal_ltdc_ex.o ABSOLUTE
    ..\Drivers\STM32F4xx_HAL_Driver\Src\stm32f4xx_hal_pcd.c 0x00000000   Number         0  stm32f4xx_hal_pcd.o ABSOLUTE
    ..\Drivers\STM32F4xx_HAL_Driver\Src\stm32f4xx_hal_pcd_ex.c 0x00000000   Number         0  stm32f4xx_hal_pcd_ex.o ABSOLUTE
    ..\Drivers\STM32F4xx_HAL_Driver\Src\stm32f4xx_hal_pwr.c 0x00000000   Number         0  stm32f4xx_hal_pwr.o ABSOLUTE
    ..\Drivers\STM32F4xx_HAL_Driver\Src\stm32f4xx_hal_pwr_ex.c 0x00000000   Number         0  stm32f4xx_hal_pwr_ex.o ABSOLUTE
    ..\Drivers\STM32F4xx_HAL_Driver\Src\stm32f4xx_hal_rcc.c 0x00000000   Number         0  stm32f4xx_hal_rcc.o ABSOLUTE
    ..\Drivers\STM32F4xx_HAL_Driver\Src\stm32f4xx_hal_rcc_ex.c 0x00000000   Number         0  stm32f4xx_hal_rcc_ex.o ABSOLUTE
    ..\Drivers\STM32F4xx_HAL_Driver\Src\stm32f4xx_hal_sd.c 0x00000000   Number         0  stm32f4xx_hal_sd.o ABSOLUTE
    ..\Drivers\STM32F4xx_HAL_Driver\Src\stm32f4xx_hal_sdram.c 0x00000000   Number         0  stm32f4xx_hal_sdram.o ABSOLUTE
    ..\Drivers\STM32F4xx_HAL_Driver\Src\stm32f4xx_hal_uart.c 0x00000000   Number         0  stm32f4xx_hal_uart.o ABSOLUTE
    ..\Drivers\STM32F4xx_HAL_Driver\Src\stm32f4xx_ll_fmc.c 0x00000000   Number         0  stm32f4xx_ll_fmc.o ABSOLUTE
    ..\Drivers\STM32F4xx_HAL_Driver\Src\stm32f4xx_ll_sdmmc.c 0x00000000   Number         0  stm32f4xx_ll_sdmmc.o ABSOLUTE
    ..\Drivers\STM32F4xx_HAL_Driver\Src\stm32f4xx_ll_usb.c 0x00000000   Number         0  stm32f4xx_ll_usb.o ABSOLUTE
    ..\Log\lcd_log.c                         0x00000000   Number         0  lcd_log.o ABSOLUTE
    ..\Middlewares\ST\STM32_USB_Device_Library\Class\MSC\Src\usbd_msc.c 0x00000000   Number         0  usbd_msc.o ABSOLUTE
    ..\Middlewares\ST\STM32_USB_Device_Library\Class\MSC\Src\usbd_msc_bot.c 0x00000000   Number         0  usbd_msc_bot.o ABSOLUTE
    ..\Middlewares\ST\STM32_USB_Device_Library\Class\MSC\Src\usbd_msc_data.c 0x00000000   Number         0  usbd_msc_data.o ABSOLUTE
    ..\Middlewares\ST\STM32_USB_Device_Library\Class\MSC\Src\usbd_msc_scsi.c 0x00000000   Number         0  usbd_msc_scsi.o ABSOLUTE
    ..\Middlewares\ST\STM32_USB_Device_Library\Core\Src\usbd_core.c 0x00000000   Number         0  usbd_core.o ABSOLUTE
    ..\Middlewares\ST\STM32_USB_Device_Library\Core\Src\usbd_ctlreq.c 0x00000000   Number         0  usbd_ctlreq.o ABSOLUTE
    ..\Middlewares\ST\STM32_USB_Device_Library\Core\Src\usbd_ioreq.c 0x00000000   Number         0  usbd_ioreq.o ABSOLUTE
    ..\Src\dma.c                             0x00000000   Number         0  dma.o ABSOLUTE
    ..\Src\dma2d.c                           0x00000000   Number         0  dma2d.o ABSOLUTE
    ..\Src\fmc.c                             0x00000000   Number         0  fmc.o ABSOLUTE
    ..\Src\gpio.c                            0x00000000   Number         0  gpio.o ABSOLUTE
    ..\Src\ltdc.c                            0x00000000   Number         0  ltdc.o ABSOLUTE
    ..\Src\main.c                            0x00000000   Number         0  main.o ABSOLUTE
    ..\Src\sdio.c                            0x00000000   Number         0  sdio.o ABSOLUTE
    ..\Src\stm32f4xx_hal_msp.c               0x00000000   Number         0  stm32f4xx_hal_msp.o ABSOLUTE
    ..\Src\stm32f4xx_it.c                    0x00000000   Number         0  stm32f4xx_it.o ABSOLUTE
    ..\Src\usb_device.c                      0x00000000   Number         0  usb_device.o ABSOLUTE
    ..\Src\usbd_conf.c                       0x00000000   Number         0  usbd_conf.o ABSOLUTE
    ..\Src\usbd_desc.c                       0x00000000   Number         0  usbd_desc.o ABSOLUTE
    ..\Src\usbd_storage_if.c                 0x00000000   Number         0  usbd_storage_if.o ABSOLUTE
    ..\\BSP\\stm324x9i_lcd.c                 0x00000000   Number         0  stm324x9i_lcd.o ABSOLUTE
    ..\\BSP\\stm324x9i_sdram.c               0x00000000   Number         0  stm324x9i_sdram.o ABSOLUTE
    ..\\Log\\lcd_log.c                       0x00000000   Number         0  lcd_log.o ABSOLUTE
    dc.s                                     0x00000000   Number         0  dc.o ABSOLUTE
    handlers.s                               0x00000000   Number         0  handlers.o ABSOLUTE
    init.s                                   0x00000000   Number         0  init.o ABSOLUTE
    RESET                                    0x08000000   Section      428  startup_stm32f429xx.o(RESET)
    .ARM.Collect$$$$00000000                 0x080001ac   Section        0  entry.o(.ARM.Collect$$$$00000000)
    .ARM.Collect$$$$00000001                 0x080001ac   Section        4  entry2.o(.ARM.Collect$$$$00000001)
    .ARM.Collect$$$$00000004                 0x080001b0   Section        4  entry5.o(.ARM.Collect$$$$00000004)
    .ARM.Collect$$$$00000008                 0x080001b4   Section        0  entry7b.o(.ARM.Collect$$$$00000008)
    .ARM.Collect$$$$0000000A                 0x080001b4   Section        0  entry8b.o(.ARM.Collect$$$$0000000A)
    .ARM.Collect$$$$0000000B                 0x080001b4   Section        8  entry9a.o(.ARM.Collect$$$$0000000B)
    .ARM.Collect$$$$0000000D                 0x080001bc   Section        0  entry10a.o(.ARM.Collect$$$$0000000D)
    .ARM.Collect$$$$0000000F                 0x080001bc   Section        0  entry11a.o(.ARM.Collect$$$$0000000F)
    .ARM.Collect$$$$00002712                 0x080001bc   Section        4  entry2.o(.ARM.Collect$$$$00002712)
    __lit__00000000                          0x080001bc   Data           4  entry2.o(.ARM.Collect$$$$00002712)
    .text                                    0x080001c0   Section       36  startup_stm32f429xx.o(.text)
    $v0                                      0x080001c0   Number         0  startup_stm32f429xx.o(.text)
    .text                                    0x080001e4   Section       36  init.o(.text)
    .text                                    0x08000208   Section        0  __dczerorl2.o(.text)
    i.BSP_LCD_Clear                          0x08000260   Section        0  stm324x9i_lcd.o(i.BSP_LCD_Clear)
    i.BSP_LCD_DisplayChar                    0x08000298   Section        0  stm324x9i_lcd.o(i.BSP_LCD_DisplayChar)
    i.BSP_LCD_DisplayStringAt                0x080002cc   Section        0  stm324x9i_lcd.o(i.BSP_LCD_DisplayStringAt)
    i.BSP_LCD_DrawPixel                      0x08000394   Section        0  stm324x9i_lcd.o(i.BSP_LCD_DrawPixel)
    i.BSP_LCD_FillRect                       0x080003f8   Section        0  stm324x9i_lcd.o(i.BSP_LCD_FillRect)
    i.BSP_LCD_GetXSize                       0x08000494   Section        0  stm324x9i_lcd.o(i.BSP_LCD_GetXSize)
    i.BSP_LCD_GetYSize                       0x080004b4   Section        0  stm324x9i_lcd.o(i.BSP_LCD_GetYSize)
    i.BSP_LCD_Init                           0x080004d4   Section        0  stm324x9i_lcd.o(i.BSP_LCD_Init)
    i.BSP_LCD_SelectLayer                    0x080004f8   Section        0  stm324x9i_lcd.o(i.BSP_LCD_SelectLayer)
    i.BSP_LCD_SetBackColor                   0x08000504   Section        0  stm324x9i_lcd.o(i.BSP_LCD_SetBackColor)
    i.BSP_LCD_SetFont                        0x08000520   Section        0  stm324x9i_lcd.o(i.BSP_LCD_SetFont)
    i.BSP_LCD_SetLayerVisible                0x0800053c   Section        0  stm324x9i_lcd.o(i.BSP_LCD_SetLayerVisible)
    i.BSP_LCD_SetTextColor                   0x08000568   Section        0  stm324x9i_lcd.o(i.BSP_LCD_SetTextColor)
    i.BSP_SDRAM_Init                         0x08000580   Section        0  stm324x9i_sdram.o(i.BSP_SDRAM_Init)
    i.BSP_SDRAM_Initialization_sequence      0x08000594   Section        0  stm324x9i_sdram.o(i.BSP_SDRAM_Initialization_sequence)
    i.DMA2D_SetConfig                        0x08000618   Section        0  stm32f4xx_hal_dma2d.o(i.DMA2D_SetConfig)
    DMA2D_SetConfig                          0x08000619   Thumb Code   172  stm32f4xx_hal_dma2d.o(i.DMA2D_SetConfig)
    i.DMA2_Stream3_IRQHandler                0x080006c4   Section        0  stm32f4xx_it.o(i.DMA2_Stream3_IRQHandler)
    i.DMA2_Stream6_IRQHandler                0x080006d0   Section        0  stm32f4xx_it.o(i.DMA2_Stream6_IRQHandler)
    i.DMA_CalcBaseAndBitshift                0x080006dc   Section        0  stm32f4xx_hal_dma.o(i.DMA_CalcBaseAndBitshift)
    DMA_CalcBaseAndBitshift                  0x080006dd   Thumb Code    44  stm32f4xx_hal_dma.o(i.DMA_CalcBaseAndBitshift)
    i.DMA_SetConfig                          0x08000710   Section        0  stm32f4xx_hal_dma.o(i.DMA_SetConfig)
    DMA_SetConfig                            0x08000711   Thumb Code    56  stm32f4xx_hal_dma.o(i.DMA_SetConfig)
    i.DrawChar                               0x08000748   Section        0  stm324x9i_lcd.o(i.DrawChar)
    DrawChar                                 0x08000749   Thumb Code   172  stm324x9i_lcd.o(i.DrawChar)
    i.FMC_SDRAM_Init                         0x080007fc   Section        0  stm32f4xx_ll_fmc.o(i.FMC_SDRAM_Init)
    i.FMC_SDRAM_ProgramRefreshRate           0x0800085a   Section        0  stm32f4xx_ll_fmc.o(i.FMC_SDRAM_ProgramRefreshRate)
    i.FMC_SDRAM_SendCommand                  0x08000866   Section        0  stm32f4xx_ll_fmc.o(i.FMC_SDRAM_SendCommand)
    i.FMC_SDRAM_Timing_Init                  0x080008b6   Section        0  stm32f4xx_ll_fmc.o(i.FMC_SDRAM_Timing_Init)
    i.HAL_DMA2D_ConfigLayer                  0x08000934   Section        0  stm32f4xx_hal_dma2d.o(i.HAL_DMA2D_ConfigLayer)
    i.HAL_DMA2D_Init                         0x08000a34   Section        0  stm32f4xx_hal_dma2d.o(i.HAL_DMA2D_Init)
    i.HAL_DMA2D_MspInit                      0x08000a90   Section        0  dma2d.o(i.HAL_DMA2D_MspInit)
    i.HAL_DMA2D_PollForTransfer              0x08000ab8   Section        0  stm32f4xx_hal_dma2d.o(i.HAL_DMA2D_PollForTransfer)
    i.HAL_DMA2D_Start                        0x08000bc4   Section        0  stm32f4xx_hal_dma2d.o(i.HAL_DMA2D_Start)
    i.HAL_DMA_Abort                          0x08000c06   Section        0  stm32f4xx_hal_dma.o(i.HAL_DMA_Abort)
    i.HAL_DMA_IRQHandler                     0x08000c60   Section        0  stm32f4xx_hal_dma.o(i.HAL_DMA_IRQHandler)
    i.HAL_DMA_Init                           0x08000e40   Section        0  stm32f4xx_hal_dma.o(i.HAL_DMA_Init)
    i.HAL_DMA_Start_IT                       0x08000ed4   Section        0  stm32f4xx_hal_dma.o(i.HAL_DMA_Start_IT)
    i.HAL_Delay                              0x08000f26   Section        0  stm32f4xx_hal.o(i.HAL_Delay)
    i.HAL_FMC_MspInit                        0x08000f3c   Section        0  fmc.o(i.HAL_FMC_MspInit)
    HAL_FMC_MspInit                          0x08000f3d   Thumb Code   154  fmc.o(i.HAL_FMC_MspInit)
    i.HAL_GPIO_Init                          0x08000ff4   Section        0  stm32f4xx_hal_gpio.o(i.HAL_GPIO_Init)
    i.HAL_GetTick                            0x0800120c   Section        0  stm32f4xx_hal.o(i.HAL_GetTick)
    i.HAL_IncTick                            0x08001218   Section        0  stm32f4xx_hal.o(i.HAL_IncTick)
    i.HAL_Init                               0x08001228   Section        0  stm32f4xx_hal.o(i.HAL_Init)
    i.HAL_InitTick                           0x0800125c   Section        0  stm32f4xx_hal.o(i.HAL_InitTick)
    i.HAL_LTDC_ConfigLayer                   0x0800127e   Section        0  stm32f4xx_hal_ltdc.o(i.HAL_LTDC_ConfigLayer)
    i.HAL_LTDC_Init                          0x080012fc   Section        0  stm32f4xx_hal_ltdc.o(i.HAL_LTDC_Init)
    i.HAL_LTDC_MspInit                       0x08001408   Section        0  ltdc.o(i.HAL_LTDC_MspInit)
    i.HAL_MspInit                            0x080014e8   Section        0  stm32f4xx_hal_msp.o(i.HAL_MspInit)
    i.HAL_NVIC_EnableIRQ                     0x080014fe   Section        0  stm32f4xx_hal_cortex.o(i.HAL_NVIC_EnableIRQ)
    i.HAL_NVIC_SetPriority                   0x08001518   Section        0  stm32f4xx_hal_cortex.o(i.HAL_NVIC_SetPriority)
    i.HAL_NVIC_SetPriorityGrouping           0x08001580   Section        0  stm32f4xx_hal_cortex.o(i.HAL_NVIC_SetPriorityGrouping)
    i.HAL_PCDEx_SetRxFiFo                    0x080015a4   Section        0  stm32f4xx_hal_pcd_ex.o(i.HAL_PCDEx_SetRxFiFo)
    i.HAL_PCDEx_SetTxFiFo                    0x080015ac   Section        0  stm32f4xx_hal_pcd_ex.o(i.HAL_PCDEx_SetTxFiFo)
    i.HAL_PCD_ConnectCallback                0x080015f4   Section        0  usbd_conf.o(i.HAL_PCD_ConnectCallback)
    i.HAL_PCD_DataInStageCallback            0x080015fc   Section        0  usbd_conf.o(i.HAL_PCD_DataInStageCallback)
    i.HAL_PCD_DataOutStageCallback           0x0800160e   Section        0  usbd_conf.o(i.HAL_PCD_DataOutStageCallback)
    i.HAL_PCD_DisconnectCallback             0x08001622   Section        0  usbd_conf.o(i.HAL_PCD_DisconnectCallback)
    i.HAL_PCD_EP_Close                       0x0800162a   Section        0  stm32f4xx_hal_pcd.o(i.HAL_PCD_EP_Close)
    i.HAL_PCD_EP_ClrStall                    0x08001672   Section        0  stm32f4xx_hal_pcd.o(i.HAL_PCD_EP_ClrStall)
    i.HAL_PCD_EP_Flush                       0x080016c6   Section        0  stm32f4xx_hal_pcd.o(i.HAL_PCD_EP_Flush)
    i.HAL_PCD_EP_GetRxCount                  0x080016fc   Section        0  stm32f4xx_hal_pcd.o(i.HAL_PCD_EP_GetRxCount)
    i.HAL_PCD_EP_Open                        0x08001710   Section        0  stm32f4xx_hal_pcd.o(i.HAL_PCD_EP_Open)
    i.HAL_PCD_EP_Receive                     0x0800176e   Section        0  stm32f4xx_hal_pcd.o(i.HAL_PCD_EP_Receive)
    i.HAL_PCD_EP_SetStall                    0x080017ca   Section        0  stm32f4xx_hal_pcd.o(i.HAL_PCD_EP_SetStall)
    i.HAL_PCD_EP_Transmit                    0x08001830   Section        0  stm32f4xx_hal_pcd.o(i.HAL_PCD_EP_Transmit)
    i.HAL_PCD_IRQHandler                     0x0800188a   Section        0  stm32f4xx_hal_pcd.o(i.HAL_PCD_IRQHandler)
    i.HAL_PCD_ISOINIncompleteCallback        0x08001cbe   Section        0  usbd_conf.o(i.HAL_PCD_ISOINIncompleteCallback)
    i.HAL_PCD_ISOOUTIncompleteCallback       0x08001cc6   Section        0  usbd_conf.o(i.HAL_PCD_ISOOUTIncompleteCallback)
    i.HAL_PCD_Init                           0x08001cce   Section        0  stm32f4xx_hal_pcd.o(i.HAL_PCD_Init)
    i.HAL_PCD_MspInit                        0x08001dc8   Section        0  usbd_conf.o(i.HAL_PCD_MspInit)
    i.HAL_PCD_ResetCallback                  0x08001e48   Section        0  usbd_conf.o(i.HAL_PCD_ResetCallback)
    i.HAL_PCD_ResumeCallback                 0x08001e6a   Section        0  usbd_conf.o(i.HAL_PCD_ResumeCallback)
    i.HAL_PCD_SOFCallback                    0x08001e72   Section        0  usbd_conf.o(i.HAL_PCD_SOFCallback)
    i.HAL_PCD_SetAddress                     0x08001e7a   Section        0  stm32f4xx_hal_pcd.o(i.HAL_PCD_SetAddress)
    i.HAL_PCD_SetupStageCallback             0x08001e9e   Section        0  usbd_conf.o(i.HAL_PCD_SetupStageCallback)
    i.HAL_PCD_Start                          0x08001eac   Section        0  stm32f4xx_hal_pcd.o(i.HAL_PCD_Start)
    i.HAL_PCD_SuspendCallback                0x08001ed8   Section        0  usbd_conf.o(i.HAL_PCD_SuspendCallback)
    i.HAL_RCCEx_PeriphCLKConfig              0x08001f08   Section        0  stm32f4xx_hal_rcc_ex.o(i.HAL_RCCEx_PeriphCLKConfig)
    i.HAL_RCC_ClockConfig                    0x08002208   Section        0  stm32f4xx_hal_rcc.o(i.HAL_RCC_ClockConfig)
    i.HAL_RCC_GetHCLKFreq                    0x08002488   Section        0  stm32f4xx_hal_rcc.o(i.HAL_RCC_GetHCLKFreq)
    i.HAL_RCC_GetSysClockFreq                0x080024bc   Section        0  stm32f4xx_hal_rcc.o(i.HAL_RCC_GetSysClockFreq)
    i.HAL_RCC_OscConfig                      0x08002548   Section        0  stm32f4xx_hal_rcc.o(i.HAL_RCC_OscConfig)
    i.HAL_SDRAM_Init                         0x08002978   Section        0  stm32f4xx_hal_sdram.o(i.HAL_SDRAM_Init)
    i.HAL_SDRAM_MspInit                      0x080029bc   Section        0  fmc.o(i.HAL_SDRAM_MspInit)
    i.HAL_SDRAM_ProgramRefreshRate           0x080029c0   Section        0  stm32f4xx_hal_sdram.o(i.HAL_SDRAM_ProgramRefreshRate)
    i.HAL_SDRAM_SendCommand                  0x080029e6   Section        0  stm32f4xx_hal_sdram.o(i.HAL_SDRAM_SendCommand)
    i.HAL_SD_CheckReadOperation              0x08002a1e   Section        0  stm32f4xx_hal_sd.o(i.HAL_SD_CheckReadOperation)
    i.HAL_SD_CheckWriteOperation             0x08002a8e   Section        0  stm32f4xx_hal_sd.o(i.HAL_SD_CheckWriteOperation)
    i.HAL_SD_DMA_RxCpltCallback              0x08002b08   Section        0  stm32f4xx_hal_sd.o(i.HAL_SD_DMA_RxCpltCallback)
    i.HAL_SD_DMA_RxErrorCallback             0x08002b0a   Section        0  stm32f4xx_hal_sd.o(i.HAL_SD_DMA_RxErrorCallback)
    i.HAL_SD_DMA_TxCpltCallback              0x08002b0c   Section        0  stm32f4xx_hal_sd.o(i.HAL_SD_DMA_TxCpltCallback)
    i.HAL_SD_DMA_TxErrorCallback             0x08002b0e   Section        0  stm32f4xx_hal_sd.o(i.HAL_SD_DMA_TxErrorCallback)
    i.HAL_SD_GetStatus                       0x08002b10   Section        0  stm32f4xx_hal_sd.o(i.HAL_SD_GetStatus)
    i.HAL_SD_Get_CardInfo                    0x08002b2a   Section        0  stm32f4xx_hal_sd.o(i.HAL_SD_Get_CardInfo)
    i.HAL_SD_IRQHandler                      0x08002df6   Section        0  stm32f4xx_hal_sd.o(i.HAL_SD_IRQHandler)
    i.HAL_SD_Init                            0x08002ea0   Section        0  stm32f4xx_hal_sd.o(i.HAL_SD_Init)
    i.HAL_SD_MspInit                         0x08002f3c   Section        0  sdio.o(i.HAL_SD_MspInit)
    i.HAL_SD_ReadBlocks_DMA                  0x08003078   Section        0  stm32f4xx_hal_sd.o(i.HAL_SD_ReadBlocks_DMA)
    i.HAL_SD_StopTransfer                    0x08003184   Section        0  stm32f4xx_hal_sd.o(i.HAL_SD_StopTransfer)
    i.HAL_SD_WideBusOperation_Config         0x080031b0   Section        0  stm32f4xx_hal_sd.o(i.HAL_SD_WideBusOperation_Config)
    i.HAL_SD_WriteBlocks_DMA                 0x08003234   Section        0  stm32f4xx_hal_sd.o(i.HAL_SD_WriteBlocks_DMA)
    i.HAL_SD_XferCpltCallback                0x08003344   Section        0  stm32f4xx_hal_sd.o(i.HAL_SD_XferCpltCallback)
    i.HAL_SD_XferErrorCallback               0x08003346   Section        0  stm32f4xx_hal_sd.o(i.HAL_SD_XferErrorCallback)
    i.HAL_SYSTICK_CLKSourceConfig            0x08003348   Section        0  stm32f4xx_hal_cortex.o(i.HAL_SYSTICK_CLKSourceConfig)
    i.HAL_SYSTICK_Callback                   0x08003364   Section        0  stm32f4xx_hal_cortex.o(i.HAL_SYSTICK_Callback)
    i.HAL_SYSTICK_Config                     0x08003368   Section        0  stm32f4xx_hal_cortex.o(i.HAL_SYSTICK_Config)
    i.HAL_SYSTICK_IRQHandler                 0x08003390   Section        0  stm32f4xx_hal_cortex.o(i.HAL_SYSTICK_IRQHandler)
    i.LCD_LOG_DeInit                         0x08003398   Section        0  lcd_log.o(i.LCD_LOG_DeInit)
    i.LCD_LOG_Init                           0x080033c0   Section        0  lcd_log.o(i.LCD_LOG_Init)
    i.LCD_LOG_SetFooter                      0x080033d0   Section        0  lcd_log.o(i.LCD_LOG_SetFooter)
    i.LCD_LOG_SetHeader                      0x08003444   Section        0  lcd_log.o(i.LCD_LOG_SetHeader)
    i.LL_FillBuffer                          0x080034a8   Section        0  stm324x9i_lcd.o(i.LL_FillBuffer)
    LL_FillBuffer                            0x080034a9   Thumb Code   142  stm324x9i_lcd.o(i.LL_FillBuffer)
    i.LTDC_SetConfig                         0x08003548   Section        0  stm32f4xx_hal_ltdc.o(i.LTDC_SetConfig)
    LTDC_SetConfig                           0x08003549   Thumb Code   448  stm32f4xx_hal_ltdc.o(i.LTDC_SetConfig)
    i.MSC_BOT_Abort                          0x08003708   Section        0  usbd_msc_bot.o(i.MSC_BOT_Abort)
    MSC_BOT_Abort                            0x08003709   Thumb Code    68  usbd_msc_bot.o(i.MSC_BOT_Abort)
    i.MSC_BOT_CBW_Decode                     0x0800374c   Section        0  usbd_msc_bot.o(i.MSC_BOT_CBW_Decode)
    MSC_BOT_CBW_Decode                       0x0800374d   Thumb Code   180  usbd_msc_bot.o(i.MSC_BOT_CBW_Decode)
    i.MSC_BOT_CplClrFeature                  0x08003804   Section        0  usbd_msc_bot.o(i.MSC_BOT_CplClrFeature)
    i.MSC_BOT_DataIn                         0x08003830   Section        0  usbd_msc_bot.o(i.MSC_BOT_DataIn)
    i.MSC_BOT_DataOut                        0x08003872   Section        0  usbd_msc_bot.o(i.MSC_BOT_DataOut)
    i.MSC_BOT_DeInit                         0x080038ae   Section        0  usbd_msc_bot.o(i.MSC_BOT_DeInit)
    i.MSC_BOT_Init                           0x080038b8   Section        0  usbd_msc_bot.o(i.MSC_BOT_Init)
    i.MSC_BOT_Reset                          0x080038fa   Section        0  usbd_msc_bot.o(i.MSC_BOT_Reset)
    i.MSC_BOT_SendCSW                        0x08003914   Section        0  usbd_msc_bot.o(i.MSC_BOT_SendCSW)
    i.MSC_BOT_SendData                       0x08003950   Section        0  usbd_msc_bot.o(i.MSC_BOT_SendData)
    MSC_BOT_SendData                         0x08003951   Thumb Code    54  usbd_msc_bot.o(i.MSC_BOT_SendData)
    i.MX_DMA2D_Init                          0x08003988   Section        0  dma2d.o(i.MX_DMA2D_Init)
    i.MX_DMA_Init                            0x080039bc   Section        0  dma.o(i.MX_DMA_Init)
    i.MX_FMC_Init                            0x08003a34   Section        0  fmc.o(i.MX_FMC_Init)
    i.MX_GPIO_Init                           0x08003a8c   Section        0  gpio.o(i.MX_GPIO_Init)
    i.MX_LTDC_Init                           0x08003b74   Section        0  ltdc.o(i.MX_LTDC_Init)
    i.MX_SDIO_SD_Init                        0x08003c48   Section        0  sdio.o(i.MX_SDIO_SD_Init)
    i.MX_USB_DEVICE_Init                     0x08003c7c   Section        0  usb_device.o(i.MX_USB_DEVICE_Init)
    i.OTG_FS_IRQHandler                      0x08003cb4   Section        0  stm32f4xx_it.o(i.OTG_FS_IRQHandler)
    i.PCD_WriteEmptyTxFifo                   0x08003cc0   Section        0  stm32f4xx_hal_pcd.o(i.PCD_WriteEmptyTxFifo)
    PCD_WriteEmptyTxFifo                     0x08003cc1   Thumb Code   154  stm32f4xx_hal_pcd.o(i.PCD_WriteEmptyTxFifo)
    i.SCSI_CheckAddressRange                 0x08003d5a   Section        0  usbd_msc_scsi.o(i.SCSI_CheckAddressRange)
    SCSI_CheckAddressRange                   0x08003d5b   Thumb Code    34  usbd_msc_scsi.o(i.SCSI_CheckAddressRange)
    i.SCSI_Inquiry                           0x08003d7c   Section        0  usbd_msc_scsi.o(i.SCSI_Inquiry)
    SCSI_Inquiry                             0x08003d7d   Thumb Code    72  usbd_msc_scsi.o(i.SCSI_Inquiry)
    i.SCSI_ModeSense10                       0x08003dc8   Section        0  usbd_msc_scsi.o(i.SCSI_ModeSense10)
    SCSI_ModeSense10                         0x08003dc9   Thumb Code    32  usbd_msc_scsi.o(i.SCSI_ModeSense10)
    i.SCSI_ModeSense6                        0x08003dec   Section        0  usbd_msc_scsi.o(i.SCSI_ModeSense6)
    SCSI_ModeSense6                          0x08003ded   Thumb Code    30  usbd_msc_scsi.o(i.SCSI_ModeSense6)
    i.SCSI_ProcessCmd                        0x08003e10   Section        0  usbd_msc_scsi.o(i.SCSI_ProcessCmd)
    i.SCSI_ProcessRead                       0x08003ebc   Section        0  usbd_msc_scsi.o(i.SCSI_ProcessRead)
    SCSI_ProcessRead                         0x08003ebd   Thumb Code   140  usbd_msc_scsi.o(i.SCSI_ProcessRead)
    i.SCSI_ProcessWrite                      0x08003f48   Section        0  usbd_msc_scsi.o(i.SCSI_ProcessWrite)
    SCSI_ProcessWrite                        0x08003f49   Thumb Code   156  usbd_msc_scsi.o(i.SCSI_ProcessWrite)
    i.SCSI_Read10                            0x08003fe4   Section        0  usbd_msc_scsi.o(i.SCSI_Read10)
    SCSI_Read10                              0x08003fe5   Thumb Code   218  usbd_msc_scsi.o(i.SCSI_Read10)
    i.SCSI_ReadCapacity10                    0x080040be   Section        0  usbd_msc_scsi.o(i.SCSI_ReadCapacity10)
    SCSI_ReadCapacity10                      0x080040bf   Thumb Code    90  usbd_msc_scsi.o(i.SCSI_ReadCapacity10)
    i.SCSI_ReadFormatCapacity                0x08004118   Section        0  usbd_msc_scsi.o(i.SCSI_ReadFormatCapacity)
    SCSI_ReadFormatCapacity                  0x08004119   Thumb Code   112  usbd_msc_scsi.o(i.SCSI_ReadFormatCapacity)
    i.SCSI_RequestSense                      0x08004188   Section        0  usbd_msc_scsi.o(i.SCSI_RequestSense)
    SCSI_RequestSense                        0x08004189   Thumb Code   104  usbd_msc_scsi.o(i.SCSI_RequestSense)
    i.SCSI_SenseCode                         0x080041f0   Section        0  usbd_msc_scsi.o(i.SCSI_SenseCode)
    i.SCSI_StartStopUnit                     0x08004226   Section        0  usbd_msc_scsi.o(i.SCSI_StartStopUnit)
    SCSI_StartStopUnit                       0x08004227   Thumb Code    12  usbd_msc_scsi.o(i.SCSI_StartStopUnit)
    i.SCSI_TestUnitReady                     0x08004232   Section        0  usbd_msc_scsi.o(i.SCSI_TestUnitReady)
    SCSI_TestUnitReady                       0x08004233   Thumb Code    76  usbd_msc_scsi.o(i.SCSI_TestUnitReady)
    i.SCSI_Verify10                          0x0800427e   Section        0  usbd_msc_scsi.o(i.SCSI_Verify10)
    SCSI_Verify10                            0x0800427f   Thumb Code    58  usbd_msc_scsi.o(i.SCSI_Verify10)
    i.SCSI_Write10                           0x080042b8   Section        0  usbd_msc_scsi.o(i.SCSI_Write10)
    SCSI_Write10                             0x080042b9   Thumb Code   272  usbd_msc_scsi.o(i.SCSI_Write10)
    i.SDIO_DataConfig                        0x080043c8   Section        0  stm32f4xx_ll_sdmmc.o(i.SDIO_DataConfig)
    i.SDIO_GetCommandResponse                0x080043ec   Section        0  stm32f4xx_ll_sdmmc.o(i.SDIO_GetCommandResponse)
    i.SDIO_GetPowerState                     0x080043f2   Section        0  stm32f4xx_ll_sdmmc.o(i.SDIO_GetPowerState)
    i.SDIO_GetResponse                       0x080043fc   Section        0  stm32f4xx_ll_sdmmc.o(i.SDIO_GetResponse)
    i.SDIO_IRQHandler                        0x08004410   Section        0  stm32f4xx_it.o(i.SDIO_IRQHandler)
    i.SDIO_Init                              0x0800441c   Section        0  stm32f4xx_ll_sdmmc.o(i.SDIO_Init)
    i.SDIO_PowerState_ON                     0x08004448   Section        0  stm32f4xx_ll_sdmmc.o(i.SDIO_PowerState_ON)
    i.SDIO_ReadFIFO                          0x08004450   Section        0  stm32f4xx_ll_sdmmc.o(i.SDIO_ReadFIFO)
    i.SDIO_SendCommand                       0x08004456   Section        0  stm32f4xx_ll_sdmmc.o(i.SDIO_SendCommand)
    i.SD_CmdError                            0x08004476   Section        0  stm32f4xx_hal_sd.o(i.SD_CmdError)
    SD_CmdError                              0x08004477   Thumb Code    46  stm32f4xx_hal_sd.o(i.SD_CmdError)
    i.SD_CmdResp1Error                       0x080044a4   Section        0  stm32f4xx_hal_sd.o(i.SD_CmdResp1Error)
    SD_CmdResp1Error                         0x080044a5   Thumb Code   282  stm32f4xx_hal_sd.o(i.SD_CmdResp1Error)
    i.SD_CmdResp2Error                       0x080045c4   Section        0  stm32f4xx_hal_sd.o(i.SD_CmdResp2Error)
    SD_CmdResp2Error                         0x080045c5   Thumb Code    52  stm32f4xx_hal_sd.o(i.SD_CmdResp2Error)
    i.SD_CmdResp3Error                       0x080045f8   Section        0  stm32f4xx_hal_sd.o(i.SD_CmdResp3Error)
    SD_CmdResp3Error                         0x080045f9   Thumb Code    38  stm32f4xx_hal_sd.o(i.SD_CmdResp3Error)
    i.SD_CmdResp6Error                       0x0800461e   Section        0  stm32f4xx_hal_sd.o(i.SD_CmdResp6Error)
    SD_CmdResp6Error                         0x0800461f   Thumb Code   146  stm32f4xx_hal_sd.o(i.SD_CmdResp6Error)
    i.SD_CmdResp7Error                       0x080046b0   Section        0  stm32f4xx_hal_sd.o(i.SD_CmdResp7Error)
    SD_CmdResp7Error                         0x080046b1   Thumb Code    74  stm32f4xx_hal_sd.o(i.SD_CmdResp7Error)
    i.SD_DMA_RxCplt                          0x080046fa   Section        0  stm32f4xx_hal_sd.o(i.SD_DMA_RxCplt)
    SD_DMA_RxCplt                            0x080046fb   Thumb Code    26  stm32f4xx_hal_sd.o(i.SD_DMA_RxCplt)
    i.SD_DMA_RxError                         0x08004714   Section        0  stm32f4xx_hal_sd.o(i.SD_DMA_RxError)
    SD_DMA_RxError                           0x08004715   Thumb Code    12  stm32f4xx_hal_sd.o(i.SD_DMA_RxError)
    i.SD_DMA_TxCplt                          0x08004720   Section        0  stm32f4xx_hal_sd.o(i.SD_DMA_TxCplt)
    SD_DMA_TxCplt                            0x08004721   Thumb Code    26  stm32f4xx_hal_sd.o(i.SD_DMA_TxCplt)
    i.SD_DMA_TxError                         0x0800473a   Section        0  stm32f4xx_hal_sd.o(i.SD_DMA_TxError)
    SD_DMA_TxError                           0x0800473b   Thumb Code    12  stm32f4xx_hal_sd.o(i.SD_DMA_TxError)
    i.SD_FindSCR                             0x08004746   Section        0  stm32f4xx_hal_sd.o(i.SD_FindSCR)
    SD_FindSCR                               0x08004747   Thumb Code   370  stm32f4xx_hal_sd.o(i.SD_FindSCR)
    i.SD_GetState                            0x080048b8   Section        0  stm32f4xx_hal_sd.o(i.SD_GetState)
    SD_GetState                              0x080048b9   Thumb Code    26  stm32f4xx_hal_sd.o(i.SD_GetState)
    i.SD_Initialize_Cards                    0x080048d2   Section        0  stm32f4xx_hal_sd.o(i.SD_Initialize_Cards)
    SD_Initialize_Cards                      0x080048d3   Thumb Code   242  stm32f4xx_hal_sd.o(i.SD_Initialize_Cards)
    i.SD_PowerON                             0x080049c4   Section        0  stm32f4xx_hal_sd.o(i.SD_PowerON)
    SD_PowerON                               0x080049c5   Thumb Code   366  stm32f4xx_hal_sd.o(i.SD_PowerON)
    i.SD_Select_Deselect                     0x08004b38   Section        0  stm32f4xx_hal_sd.o(i.SD_Select_Deselect)
    SD_Select_Deselect                       0x08004b39   Thumb Code    46  stm32f4xx_hal_sd.o(i.SD_Select_Deselect)
    i.SD_SendStatus                          0x08004b66   Section        0  stm32f4xx_hal_sd.o(i.SD_SendStatus)
    SD_SendStatus                            0x08004b67   Thumb Code    82  stm32f4xx_hal_sd.o(i.SD_SendStatus)
    i.SD_WideBus_Disable                     0x08004bb8   Section        0  stm32f4xx_hal_sd.o(i.SD_WideBus_Disable)
    SD_WideBus_Disable                       0x08004bb9   Thumb Code   122  stm32f4xx_hal_sd.o(i.SD_WideBus_Disable)
    i.SD_WideBus_Enable                      0x08004c32   Section        0  stm32f4xx_hal_sd.o(i.SD_WideBus_Enable)
    SD_WideBus_Enable                        0x08004c33   Thumb Code   124  stm32f4xx_hal_sd.o(i.SD_WideBus_Enable)
    i.STORAGE_GetCapacity_FS                 0x08004cb0   Section        0  usbd_storage_if.o(i.STORAGE_GetCapacity_FS)
    STORAGE_GetCapacity_FS                   0x08004cb1   Thumb Code    44  usbd_storage_if.o(i.STORAGE_GetCapacity_FS)
    i.STORAGE_GetMaxLun_FS                   0x08004ce0   Section        0  usbd_storage_if.o(i.STORAGE_GetMaxLun_FS)
    STORAGE_GetMaxLun_FS                     0x08004ce1   Thumb Code     4  usbd_storage_if.o(i.STORAGE_GetMaxLun_FS)
    i.STORAGE_Init_FS                        0x08004ce4   Section        0  usbd_storage_if.o(i.STORAGE_Init_FS)
    STORAGE_Init_FS                          0x08004ce5   Thumb Code     4  usbd_storage_if.o(i.STORAGE_Init_FS)
    i.STORAGE_IsReady_FS                     0x08004ce8   Section        0  usbd_storage_if.o(i.STORAGE_IsReady_FS)
    STORAGE_IsReady_FS                       0x08004ce9   Thumb Code    18  usbd_storage_if.o(i.STORAGE_IsReady_FS)
    i.STORAGE_IsWriteProtected_FS            0x08004d00   Section        0  usbd_storage_if.o(i.STORAGE_IsWriteProtected_FS)
    STORAGE_IsWriteProtected_FS              0x08004d01   Thumb Code     4  usbd_storage_if.o(i.STORAGE_IsWriteProtected_FS)
    i.STORAGE_Read_FS                        0x08004d04   Section        0  usbd_storage_if.o(i.STORAGE_Read_FS)
    STORAGE_Read_FS                          0x08004d05   Thumb Code    42  usbd_storage_if.o(i.STORAGE_Read_FS)
    i.STORAGE_Write_FS                       0x08004d38   Section        0  usbd_storage_if.o(i.STORAGE_Write_FS)
    STORAGE_Write_FS                         0x08004d39   Thumb Code    46  usbd_storage_if.o(i.STORAGE_Write_FS)
    i.SysTick_Handler                        0x08004d70   Section        0  stm32f4xx_it.o(i.SysTick_Handler)
    i.SystemClock_Config                     0x08004d80   Section        0  main.o(i.SystemClock_Config)
    i.SystemInit                             0x08004e28   Section        0  system_stm32f4xx.o(i.SystemInit)
    i.USBD_ClrClassConfig                    0x08004e80   Section        0  usbd_core.o(i.USBD_ClrClassConfig)
    i.USBD_ClrFeature                        0x08004e8e   Section        0  usbd_ctlreq.o(i.USBD_ClrFeature)
    USBD_ClrFeature                          0x08004e8f   Thumb Code    60  usbd_ctlreq.o(i.USBD_ClrFeature)
    i.USBD_CtlContinueRx                     0x08004eca   Section        0  usbd_ioreq.o(i.USBD_CtlContinueRx)
    i.USBD_CtlContinueSendData               0x08004eda   Section        0  usbd_ioreq.o(i.USBD_CtlContinueSendData)
    i.USBD_CtlError                          0x08004eea   Section        0  usbd_ctlreq.o(i.USBD_CtlError)
    i.USBD_CtlReceiveStatus                  0x08004f02   Section        0  usbd_ioreq.o(i.USBD_CtlReceiveStatus)
    i.USBD_CtlSendData                       0x08004f18   Section        0  usbd_ioreq.o(i.USBD_CtlSendData)
    i.USBD_CtlSendStatus                     0x08004f32   Section        0  usbd_ioreq.o(i.USBD_CtlSendStatus)
    i.USBD_FS_ConfigStrDescriptor            0x08004f48   Section        0  usbd_desc.o(i.USBD_FS_ConfigStrDescriptor)
    i.USBD_FS_DeviceDescriptor               0x08004f78   Section        0  usbd_desc.o(i.USBD_FS_DeviceDescriptor)
    i.USBD_FS_InterfaceStrDescriptor         0x08004f84   Section        0  usbd_desc.o(i.USBD_FS_InterfaceStrDescriptor)
    i.USBD_FS_LangIDStrDescriptor            0x08004fb8   Section        0  usbd_desc.o(i.USBD_FS_LangIDStrDescriptor)
    i.USBD_FS_ManufacturerStrDescriptor      0x08004fc4   Section        0  usbd_desc.o(i.USBD_FS_ManufacturerStrDescriptor)
    i.USBD_FS_ProductStrDescriptor           0x08004fec   Section        0  usbd_desc.o(i.USBD_FS_ProductStrDescriptor)
    i.USBD_FS_SerialStrDescriptor            0x08005024   Section        0  usbd_desc.o(i.USBD_FS_SerialStrDescriptor)
    i.USBD_GetConfig                         0x08005058   Section        0  usbd_ctlreq.o(i.USBD_GetConfig)
    USBD_GetConfig                           0x08005059   Thumb Code    48  usbd_ctlreq.o(i.USBD_GetConfig)
    i.USBD_GetDescriptor                     0x08005088   Section        0  usbd_ctlreq.o(i.USBD_GetDescriptor)
    USBD_GetDescriptor                       0x08005089   Thumb Code   302  usbd_ctlreq.o(i.USBD_GetDescriptor)
    i.USBD_GetLen                            0x080051b6   Section        0  usbd_ctlreq.o(i.USBD_GetLen)
    USBD_GetLen                              0x080051b7   Thumb Code    24  usbd_ctlreq.o(i.USBD_GetLen)
    i.USBD_GetStatus                         0x080051ce   Section        0  usbd_ctlreq.o(i.USBD_GetStatus)
    USBD_GetStatus                           0x080051cf   Thumb Code    40  usbd_ctlreq.o(i.USBD_GetStatus)
    i.USBD_GetString                         0x080051f6   Section        0  usbd_ctlreq.o(i.USBD_GetString)
    i.USBD_Init                              0x08005238   Section        0  usbd_core.o(i.USBD_Init)
    i.USBD_LL_ClearStallEP                   0x08005264   Section        0  usbd_conf.o(i.USBD_LL_ClearStallEP)
    i.USBD_LL_CloseEP                        0x08005272   Section        0  usbd_conf.o(i.USBD_LL_CloseEP)
    i.USBD_LL_DataInStage                    0x08005280   Section        0  usbd_core.o(i.USBD_LL_DataInStage)
    i.USBD_LL_DataOutStage                   0x0800533a   Section        0  usbd_core.o(i.USBD_LL_DataOutStage)
    i.USBD_LL_DevConnected                   0x080053ac   Section        0  usbd_core.o(i.USBD_LL_DevConnected)
    i.USBD_LL_DevDisconnected                0x080053b0   Section        0  usbd_core.o(i.USBD_LL_DevDisconnected)
    i.USBD_LL_FlushEP                        0x080053c6   Section        0  usbd_conf.o(i.USBD_LL_FlushEP)
    i.USBD_LL_GetRxDataSize                  0x080053d4   Section        0  usbd_conf.o(i.USBD_LL_GetRxDataSize)
    i.USBD_LL_Init                           0x080053dc   Section        0  usbd_conf.o(i.USBD_LL_Init)
    i.USBD_LL_IsStallEP                      0x08005438   Section        0  usbd_conf.o(i.USBD_LL_IsStallEP)
    i.USBD_LL_IsoINIncomplete                0x0800545a   Section        0  usbd_core.o(i.USBD_LL_IsoINIncomplete)
    i.USBD_LL_IsoOUTIncomplete               0x0800545e   Section        0  usbd_core.o(i.USBD_LL_IsoOUTIncomplete)
    i.USBD_LL_OpenEP                         0x08005462   Section        0  usbd_conf.o(i.USBD_LL_OpenEP)
    i.USBD_LL_PrepareReceive                 0x08005476   Section        0  usbd_conf.o(i.USBD_LL_PrepareReceive)
    i.USBD_LL_Reset                          0x08005484   Section        0  usbd_core.o(i.USBD_LL_Reset)
    i.USBD_LL_Resume                         0x080054c4   Section        0  usbd_core.o(i.USBD_LL_Resume)
    i.USBD_LL_SOF                            0x080054d0   Section        0  usbd_core.o(i.USBD_LL_SOF)
    i.USBD_LL_SetSpeed                       0x080054e8   Section        0  usbd_core.o(i.USBD_LL_SetSpeed)
    i.USBD_LL_SetUSBAddress                  0x080054ee   Section        0  usbd_conf.o(i.USBD_LL_SetUSBAddress)
    i.USBD_LL_SetupStage                     0x080054fc   Section        0  usbd_core.o(i.USBD_LL_SetupStage)
    i.USBD_LL_StallEP                        0x0800555a   Section        0  usbd_conf.o(i.USBD_LL_StallEP)
    i.USBD_LL_Start                          0x08005568   Section        0  usbd_conf.o(i.USBD_LL_Start)
    i.USBD_LL_Suspend                        0x08005576   Section        0  usbd_core.o(i.USBD_LL_Suspend)
    i.USBD_LL_Transmit                       0x08005588   Section        0  usbd_conf.o(i.USBD_LL_Transmit)
    i.USBD_MSC_DataIn                        0x08005596   Section        0  usbd_msc.o(i.USBD_MSC_DataIn)
    i.USBD_MSC_DataOut                       0x080055a0   Section        0  usbd_msc.o(i.USBD_MSC_DataOut)
    i.USBD_MSC_DeInit                        0x080055aa   Section        0  usbd_msc.o(i.USBD_MSC_DeInit)
    i.USBD_MSC_GetDeviceQualifierDescriptor  0x080055d8   Section        0  usbd_msc.o(i.USBD_MSC_GetDeviceQualifierDescriptor)
    i.USBD_MSC_GetFSCfgDesc                  0x080055e4   Section        0  usbd_msc.o(i.USBD_MSC_GetFSCfgDesc)
    i.USBD_MSC_GetHSCfgDesc                  0x080055f0   Section        0  usbd_msc.o(i.USBD_MSC_GetHSCfgDesc)
    i.USBD_MSC_GetOtherSpeedCfgDesc          0x080055fc   Section        0  usbd_msc.o(i.USBD_MSC_GetOtherSpeedCfgDesc)
    i.USBD_MSC_Init                          0x08005608   Section        0  usbd_msc.o(i.USBD_MSC_Init)
    i.USBD_MSC_RegisterStorage               0x08005666   Section        0  usbd_msc.o(i.USBD_MSC_RegisterStorage)
    i.USBD_MSC_Setup                         0x08005672   Section        0  usbd_msc.o(i.USBD_MSC_Setup)
    i.USBD_ParseSetupRequest                 0x0800577a   Section        0  usbd_ctlreq.o(i.USBD_ParseSetupRequest)
    i.USBD_RegisterClass                     0x080057a2   Section        0  usbd_core.o(i.USBD_RegisterClass)
    i.USBD_RunTestMode                       0x080057b4   Section        0  usbd_core.o(i.USBD_RunTestMode)
    i.USBD_SetAddress                        0x080057b8   Section        0  usbd_ctlreq.o(i.USBD_SetAddress)
    USBD_SetAddress                          0x080057b9   Thumb Code    84  usbd_ctlreq.o(i.USBD_SetAddress)
    i.USBD_SetClassConfig                    0x0800580c   Section        0  usbd_core.o(i.USBD_SetClassConfig)
    i.USBD_SetConfig                         0x08005824   Section        0  usbd_ctlreq.o(i.USBD_SetConfig)
    USBD_SetConfig                           0x08005825   Thumb Code   190  usbd_ctlreq.o(i.USBD_SetConfig)
    i.USBD_SetFeature                        0x080058e8   Section        0  usbd_ctlreq.o(i.USBD_SetFeature)
    USBD_SetFeature                          0x080058e9   Thumb Code    36  usbd_ctlreq.o(i.USBD_SetFeature)
    i.USBD_Start                             0x0800590c   Section        0  usbd_core.o(i.USBD_Start)
    i.USBD_StdDevReq                         0x08005916   Section        0  usbd_ctlreq.o(i.USBD_StdDevReq)
    i.USBD_StdEPReq                          0x08005972   Section        0  usbd_ctlreq.o(i.USBD_StdEPReq)
    i.USBD_StdItfReq                         0x08005a9c   Section        0  usbd_ctlreq.o(i.USBD_StdItfReq)
    i.USB_ActivateEndpoint                   0x08005ae0   Section        0  stm32f4xx_ll_usb.o(i.USB_ActivateEndpoint)
    i.USB_ActivateSetup                      0x08005b74   Section        0  stm32f4xx_ll_usb.o(i.USB_ActivateSetup)
    i.USB_CoreInit                           0x08005ba8   Section        0  stm32f4xx_ll_usb.o(i.USB_CoreInit)
    i.USB_CoreReset                          0x08005c1c   Section        0  stm32f4xx_ll_usb.o(i.USB_CoreReset)
    USB_CoreReset                            0x08005c1d   Thumb Code    54  stm32f4xx_ll_usb.o(i.USB_CoreReset)
    i.USB_DeactivateEndpoint                 0x08005c58   Section        0  stm32f4xx_ll_usb.o(i.USB_DeactivateEndpoint)
    i.USB_DevConnect                         0x08005cd6   Section        0  stm32f4xx_ll_usb.o(i.USB_DevConnect)
    i.USB_DevDisconnect                      0x08005cee   Section        0  stm32f4xx_ll_usb.o(i.USB_DevDisconnect)
    i.USB_DevInit                            0x08005d08   Section        0  stm32f4xx_ll_usb.o(i.USB_DevInit)
    i.USB_DisableGlobalInt                   0x08005e58   Section        0  stm32f4xx_ll_usb.o(i.USB_DisableGlobalInt)
    i.USB_EP0StartXfer                       0x08005e64   Section        0  stm32f4xx_ll_usb.o(i.USB_EP0StartXfer)
    i.USB_EP0_OutStart                       0x08005fbe   Section        0  stm32f4xx_ll_usb.o(i.USB_EP0_OutStart)
    i.USB_EPClearStall                       0x08005ffc   Section        0  stm32f4xx_ll_usb.o(i.USB_EPClearStall)
    i.USB_EPSetStall                         0x08006060   Section        0  stm32f4xx_ll_usb.o(i.USB_EPSetStall)
    i.USB_EPStartXfer                        0x080060c4   Section        0  stm32f4xx_ll_usb.o(i.USB_EPStartXfer)
    i.USB_EnableGlobalInt                    0x08006324   Section        0  stm32f4xx_ll_usb.o(i.USB_EnableGlobalInt)
    i.USB_FlushRxFifo                        0x08006330   Section        0  stm32f4xx_ll_usb.o(i.USB_FlushRxFifo)
    i.USB_FlushTxFifo                        0x08006354   Section        0  stm32f4xx_ll_usb.o(i.USB_FlushTxFifo)
    i.USB_GetDevSpeed                        0x0800637c   Section        0  stm32f4xx_ll_usb.o(i.USB_GetDevSpeed)
    i.USB_GetMode                            0x080063b8   Section        0  stm32f4xx_ll_usb.o(i.USB_GetMode)
    i.USB_ReadDevAllInEpInterrupt            0x080063c0   Section        0  stm32f4xx_ll_usb.o(i.USB_ReadDevAllInEpInterrupt)
    i.USB_ReadDevAllOutEpInterrupt           0x080063ce   Section        0  stm32f4xx_ll_usb.o(i.USB_ReadDevAllOutEpInterrupt)
    i.USB_ReadDevInEPInterrupt               0x080063dc   Section        0  stm32f4xx_ll_usb.o(i.USB_ReadDevInEPInterrupt)
    i.USB_ReadDevOutEPInterrupt              0x080063fa   Section        0  stm32f4xx_ll_usb.o(i.USB_ReadDevOutEPInterrupt)
    i.USB_ReadInterrupts                     0x0800640a   Section        0  stm32f4xx_ll_usb.o(i.USB_ReadInterrupts)
    i.USB_ReadPacket                         0x08006412   Section        0  stm32f4xx_ll_usb.o(i.USB_ReadPacket)
    i.USB_SetCurrentMode                     0x08006436   Section        0  stm32f4xx_ll_usb.o(i.USB_SetCurrentMode)
    i.USB_SetDevAddress                      0x08006464   Section        0  stm32f4xx_ll_usb.o(i.USB_SetDevAddress)
    i.USB_SetDevSpeed                        0x08006486   Section        0  stm32f4xx_ll_usb.o(i.USB_SetDevSpeed)
    i.USB_WritePacket                        0x08006494   Section        0  stm32f4xx_ll_usb.o(i.USB_WritePacket)
    i.__scatterload_copy                     0x080064c4   Section       14  handlers.o(i.__scatterload_copy)
    i.__scatterload_null                     0x080064d2   Section        2  handlers.o(i.__scatterload_null)
    i.__scatterload_zeroinit                 0x080064d4   Section       14  handlers.o(i.__scatterload_zeroinit)
    i.free                                   0x080064e4   Section        0  malloc.o(i.free)
    i.main                                   0x08006534   Section        0  main.o(i.main)
    i.malloc                                 0x080065bc   Section        0  malloc.o(i.malloc)
    .constdata                               0x08006628   Section       36  usbd_storage_if.o(.constdata)
    .constdata                               0x0800664c   Section     6840  stm324x9i_lcd.o(.constdata)
    .constdata                               0x08008104   Section     3800  stm324x9i_lcd.o(.constdata)
    .constdata                               0x08008fdc   Section     3040  stm324x9i_lcd.o(.constdata)
    .constdata                               0x08009bbc   Section        8  stm32f4xx_hal_dma.o(.constdata)
    flagBitshiftOffset                       0x08009bbc   Data           8  stm32f4xx_hal_dma.o(.constdata)
    .constdata                               0x08009bc4   Section       16  stm32f4xx_hal_rcc.o(.constdata)
    .constdata                               0x08009bd4   Section        7  usbd_msc_data.o(.constdata)
    .constdata                               0x08009bdb   Section        8  usbd_msc_data.o(.constdata)
    .constdata                               0x08009be3   Section        8  usbd_msc_data.o(.constdata)
    .data                                    0x20000000   Section        8  fmc.o(.data)
    FMC_Initialized                          0x20000000   Data           4  fmc.o(.data)
    FMC_DeInitialized                        0x20000004   Data           4  fmc.o(.data)
    .data                                    0x20000008   Section       28  usbd_desc.o(.data)
    .data                                    0x20000024   Section       22  usbd_desc.o(.data)
    .data                                    0x2000003c   Section       32  usbd_storage_if.o(.data)
    .data                                    0x2000005c   Section       12  stm324x9i_lcd.o(.data)
    ActiveLayer                              0x2000005c   Data           4  stm324x9i_lcd.o(.data)
    .data                                    0x20000068   Section        8  stm324x9i_lcd.o(.data)
    .data                                    0x20000070   Section        8  stm324x9i_lcd.o(.data)
    .data                                    0x20000078   Section        1  stm324x9i_sdram.o(.data)
    sdramstatus                              0x20000078   Data           1  stm324x9i_sdram.o(.data)
    .data                                    0x2000007c   Section       20  lcd_log.o(.data)
    .data                                    0x20000090   Section        4  system_stm32f4xx.o(.data)
    .data                                    0x20000094   Section        4  stm32f4xx_hal.o(.data)
    uwTick                                   0x20000094   Data           4  stm32f4xx_hal.o(.data)
    .data                                    0x20000098   Section       56  usbd_msc.o(.data)
    .data                                    0x200000d0   Section      106  usbd_msc.o(.data)
    .data                                    0x2000013a   Section        1  usbd_ctlreq.o(.data)
    cfgidx                                   0x2000013a   Data           1  usbd_ctlreq.o(.data)
    .data                                    0x2000013c   Section        4  mvars.o(.data)
    .data                                    0x20000140   Section        4  mvars.o(.data)
    .bss                                     0x20000144   Section       64  dma2d.o(.bss)
    .bss                                     0x20000184   Section      168  ltdc.o(.bss)
    .bss                                     0x2000022c   Section       52  fmc.o(.bss)
    .bss                                     0x20000260   Section       88  dma.o(.bss)
    .bss                                     0x200002b8   Section      952  usbd_conf.o(.bss)
    .bss                                     0x20000670   Section      512  usbd_desc.o(.bss)
    .bss                                     0x20000870   Section      548  usb_device.o(.bss)
    .bss                                     0x20000a98   Section      360  sdio.o(.bss)
    .bss                                     0x20000c00   Section       72  stm324x9i_lcd.o(.bss)
    periph_clk_init_struct                   0x20000c00   Data          48  stm324x9i_lcd.o(.bss)
    DrawProp                                 0x20000c30   Data          24  stm324x9i_lcd.o(.bss)
    .bss                                     0x20000c48   Section       16  stm324x9i_sdram.o(.bss)
    Command                                  0x20000c48   Data          16  stm324x9i_sdram.o(.bss)
    HEAP                                     0x20000c58   Section     4096  startup_stm32f429xx.o(HEAP)
    STACK                                    0x20001c58   Section     1024  startup_stm32f429xx.o(STACK)

    Global Symbols

    Symbol Name                              Value     Ov Type        Size  Object(Section)

    BuildAttributes$$THM_ISAv4$E$P$D$K$B$S$7EM$VFPi3$EXTD16$VFPS$VFMA$PE$A:L22UL41UL21$X:L11$S22US41US21$IEEE1$IW$USESV6$~STKCKD$USESV7$~SHL$OTIME$EBA8$MICROLIB$REQ8$PRES8$EABIv2 0x00000000   Number         0  anon$$obj.o ABSOLUTE
    __ARM_use_no_argv                        0x00000000   Number         0  main.o ABSOLUTE
    __cpp_initialize__aeabi_                  - Undefined Weak Reference
    __cxa_finalize                            - Undefined Weak Reference
    _clock_init                               - Undefined Weak Reference
    _microlib_exit                            - Undefined Weak Reference
    __Vectors_Size                           0x000001ac   Number         0  startup_stm32f429xx.o ABSOLUTE
    __Vectors                                0x08000000   Data           4  startup_stm32f429xx.o(RESET)
    __Vectors_End                            0x080001ac   Data           0  startup_stm32f429xx.o(RESET)
    __main                                   0x080001ad   Thumb Code     0  entry.o(.ARM.Collect$$$$00000000)
    _main_stk                                0x080001ad   Thumb Code     0  entry2.o(.ARM.Collect$$$$00000001)
    _main_scatterload                        0x080001b1   Thumb Code     0  entry5.o(.ARM.Collect$$$$00000004)
    __main_after_scatterload                 0x080001b5   Thumb Code     0  entry5.o(.ARM.Collect$$$$00000004)
    _main_clock                              0x080001b5   Thumb Code     0  entry7b.o(.ARM.Collect$$$$00000008)
    _main_cpp_init                           0x080001b5   Thumb Code     0  entry8b.o(.ARM.Collect$$$$0000000A)
    _main_init                               0x080001b5   Thumb Code     0  entry9a.o(.ARM.Collect$$$$0000000B)
    __rt_final_cpp                           0x080001bd   Thumb Code     0  entry10a.o(.ARM.Collect$$$$0000000D)
    __rt_final_exit                          0x080001bd   Thumb Code     0  entry11a.o(.ARM.Collect$$$$0000000F)
    Reset_Handler                            0x080001c1   Thumb Code     8  startup_stm32f429xx.o(.text)
    NMI_Handler                              0x080001c9   Thumb Code     2  startup_stm32f429xx.o(.text)
    HardFault_Handler                        0x080001cb   Thumb Code     2  startup_stm32f429xx.o(.text)
    MemManage_Handler                        0x080001cd   Thumb Code     2  startup_stm32f429xx.o(.text)
    BusFault_Handler                         0x080001cf   Thumb Code     2  startup_stm32f429xx.o(.text)
    UsageFault_Handler                       0x080001d1   Thumb Code     2  startup_stm32f429xx.o(.text)
    SVC_Handler                              0x080001d3   Thumb Code     2  startup_stm32f429xx.o(.text)
    DebugMon_Handler                         0x080001d5   Thumb Code     2  startup_stm32f429xx.o(.text)
    PendSV_Handler                           0x080001d7   Thumb Code     2  startup_stm32f429xx.o(.text)
    ADC_IRQHandler                           0x080001db   Thumb Code     0  startup_stm32f429xx.o(.text)
    CAN1_RX0_IRQHandler                      0x080001db   Thumb Code     0  startup_stm32f429xx.o(.text)
    CAN1_RX1_IRQHandler                      0x080001db   Thumb Code     0  startup_stm32f429xx.o(.text)
    CAN1_SCE_IRQHandler                      0x080001db   Thumb Code     0  startup_stm32f429xx.o(.text)
    CAN1_TX_IRQHandler                       0x080001db   Thumb Code     0  startup_stm32f429xx.o(.text)
    CAN2_RX0_IRQHandler                      0x080001db   Thumb Code     0  startup_stm32f429xx.o(.text)
    CAN2_RX1_IRQHandler                      0x080001db   Thumb Code     0  startup_stm32f429xx.o(.text)
    CAN2_SCE_IRQHandler                      0x080001db   Thumb Code     0  startup_stm32f429xx.o(.text)
    CAN2_TX_IRQHandler                       0x080001db   Thumb Code     0  startup_stm32f429xx.o(.text)
    DCMI_IRQHandler                          0x080001db   Thumb Code     0  startup_stm32f429xx.o(.text)
    DMA1_Stream0_IRQHandler                  0x080001db   Thumb Code     0  startup_stm32f429xx.o(.text)
    DMA1_Stream1_IRQHandler                  0x080001db   Thumb Code     0  startup_stm32f429xx.o(.text)
    DMA1_Stream2_IRQHandler                  0x080001db   Thumb Code     0  startup_stm32f429xx.o(.text)
    DMA1_Stream3_IRQHandler                  0x080001db   Thumb Code     0  startup_stm32f429xx.o(.text)
    DMA1_Stream4_IRQHandler                  0x080001db   Thumb Code     0  startup_stm32f429xx.o(.text)
    DMA1_Stream5_IRQHandler                  0x080001db   Thumb Code     0  startup_stm32f429xx.o(.text)
    DMA1_Stream6_IRQHandler                  0x080001db   Thumb Code     0  startup_stm32f429xx.o(.text)
    DMA1_Stream7_IRQHandler                  0x080001db   Thumb Code     0  startup_stm32f429xx.o(.text)
    DMA2D_IRQHandler                         0x080001db   Thumb Code     0  startup_stm32f429xx.o(.text)
    DMA2_Stream0_IRQHandler                  0x080001db   Thumb Code     0  startup_stm32f429xx.o(.text)
    DMA2_Stream1_IRQHandler                  0x080001db   Thumb Code     0  startup_stm32f429xx.o(.text)
    DMA2_Stream2_IRQHandler                  0x080001db   Thumb Code     0  startup_stm32f429xx.o(.text)
    DMA2_Stream4_IRQHandler                  0x080001db   Thumb Code     0  startup_stm32f429xx.o(.text)
    DMA2_Stream5_IRQHandler                  0x080001db   Thumb Code     0  startup_stm32f429xx.o(.text)
    DMA2_Stream7_IRQHandler                  0x080001db   Thumb Code     0  startup_stm32f429xx.o(.text)
    ETH_IRQHandler                           0x080001db   Thumb Code     0  startup_stm32f429xx.o(.text)
    ETH_WKUP_IRQHandler                      0x080001db   Thumb Code     0  startup_stm32f429xx.o(.text)
    EXTI0_IRQHandler                         0x080001db   Thumb Code     0  startup_stm32f429xx.o(.text)
    EXTI15_10_IRQHandler                     0x080001db   Thumb Code     0  startup_stm32f429xx.o(.text)
    EXTI1_IRQHandler                         0x080001db   Thumb Code     0  startup_stm32f429xx.o(.text)
    EXTI2_IRQHandler                         0x080001db   Thumb Code     0  startup_stm32f429xx.o(.text)
    EXTI3_IRQHandler                         0x080001db   Thumb Code     0  startup_stm32f429xx.o(.text)
    EXTI4_IRQHandler                         0x080001db   Thumb Code     0  startup_stm32f429xx.o(.text)
    EXTI9_5_IRQHandler                       0x080001db   Thumb Code     0  startup_stm32f429xx.o(.text)
    FLASH_IRQHandler                         0x080001db   Thumb Code     0  startup_stm32f429xx.o(.text)
    FMC_IRQHandler                           0x080001db   Thumb Code     0  startup_stm32f429xx.o(.text)
    FPU_IRQHandler                           0x080001db   Thumb Code     0  startup_stm32f429xx.o(.text)
    HASH_RNG_IRQHandler                      0x080001db   Thumb Code     0  startup_stm32f429xx.o(.text)
    I2C1_ER_IRQHandler                       0x080001db   Thumb Code     0  startup_stm32f429xx.o(.text)
    I2C1_EV_IRQHandler                       0x080001db   Thumb Code     0  startup_stm32f429xx.o(.text)
    I2C2_ER_IRQHandler                       0x080001db   Thumb Code     0  startup_stm32f429xx.o(.text)
    I2C2_EV_IRQHandler                       0x080001db   Thumb Code     0  startup_stm32f429xx.o(.text)
    I2C3_ER_IRQHandler                       0x080001db   Thumb Code     0  startup_stm32f429xx.o(.text)
    I2C3_EV_IRQHandler                       0x080001db   Thumb Code     0  startup_stm32f429xx.o(.text)
    LTDC_ER_IRQHandler                       0x080001db   Thumb Code     0  startup_stm32f429xx.o(.text)
    LTDC_IRQHandler                          0x080001db   Thumb Code     0  startup_stm32f429xx.o(.text)
    OTG_FS_WKUP_IRQHandler                   0x080001db   Thumb Code     0  startup_stm32f429xx.o(.text)
    OTG_HS_EP1_IN_IRQHandler                 0x080001db   Thumb Code     0  startup_stm32f429xx.o(.text)
    OTG_HS_EP1_OUT_IRQHandler                0x080001db   Thumb Code     0  startup_stm32f429xx.o(.text)
    OTG_HS_IRQHandler                        0x080001db   Thumb Code     0  startup_stm32f429xx.o(.text)
    OTG_HS_WKUP_IRQHandler                   0x080001db   Thumb Code     0  startup_stm32f429xx.o(.text)
    PVD_IRQHandler                           0x080001db   Thumb Code     0  startup_stm32f429xx.o(.text)
    RCC_IRQHandler                           0x080001db   Thumb Code     0  startup_stm32f429xx.o(.text)
    RTC_Alarm_IRQHandler                     0x080001db   Thumb Code     0  startup_stm32f429xx.o(.text)
    RTC_WKUP_IRQHandler                      0x080001db   Thumb Code     0  startup_stm32f429xx.o(.text)
    SAI1_IRQHandler                          0x080001db   Thumb Code     0  startup_stm32f429xx.o(.text)
    SPI1_IRQHandler                          0x080001db   Thumb Code     0  startup_stm32f429xx.o(.text)
    SPI2_IRQHandler                          0x080001db   Thumb Code     0  startup_stm32f429xx.o(.text)
    SPI3_IRQHandler                          0x080001db   Thumb Code     0  startup_stm32f429xx.o(.text)
    SPI4_IRQHandler                          0x080001db   Thumb Code     0  startup_stm32f429xx.o(.text)
    SPI5_IRQHandler                          0x080001db   Thumb Code     0  startup_stm32f429xx.o(.text)
    SPI6_IRQHandler                          0x080001db   Thumb Code     0  startup_stm32f429xx.o(.text)
    TAMP_STAMP_IRQHandler                    0x080001db   Thumb Code     0  startup_stm32f429xx.o(.text)
    TIM1_BRK_TIM9_IRQHandler                 0x080001db   Thumb Code     0  startup_stm32f429xx.o(.text)
    TIM1_CC_IRQHandler                       0x080001db   Thumb Code     0  startup_stm32f429xx.o(.text)
    TIM1_TRG_COM_TIM11_IRQHandler            0x080001db   Thumb Code     0  startup_stm32f429xx.o(.text)
    TIM1_UP_TIM10_IRQHandler                 0x080001db   Thumb Code     0  startup_stm32f429xx.o(.text)
    TIM2_IRQHandler                          0x080001db   Thumb Code     0  startup_stm32f429xx.o(.text)
    TIM3_IRQHandler                          0x080001db   Thumb Code     0  startup_stm32f429xx.o(.text)
    TIM4_IRQHandler                          0x080001db   Thumb Code     0  startup_stm32f429xx.o(.text)
    TIM5_IRQHandler                          0x080001db   Thumb Code     0  startup_stm32f429xx.o(.text)
    TIM6_DAC_IRQHandler                      0x080001db   Thumb Code     0  startup_stm32f429xx.o(.text)
    TIM7_IRQHandler                          0x080001db   Thumb Code     0  startup_stm32f429xx.o(.text)
    TIM8_BRK_TIM12_IRQHandler                0x080001db   Thumb Code     0  startup_stm32f429xx.o(.text)
    TIM8_CC_IRQHandler                       0x080001db   Thumb Code     0  startup_stm32f429xx.o(.text)
    TIM8_TRG_COM_TIM14_IRQHandler            0x080001db   Thumb Code     0  startup_stm32f429xx.o(.text)
    TIM8_UP_TIM13_IRQHandler                 0x080001db   Thumb Code     0  startup_stm32f429xx.o(.text)
    UART4_IRQHandler                         0x080001db   Thumb Code     0  startup_stm32f429xx.o(.text)
    UART5_IRQHandler                         0x080001db   Thumb Code     0  startup_stm32f429xx.o(.text)
    UART7_IRQHandler                         0x080001db   Thumb Code     0  startup_stm32f429xx.o(.text)
    UART8_IRQHandler                         0x080001db   Thumb Code     0  startup_stm32f429xx.o(.text)
    USART1_IRQHandler                        0x080001db   Thumb Code     0  startup_stm32f429xx.o(.text)
    USART2_IRQHandler                        0x080001db   Thumb Code     0  startup_stm32f429xx.o(.text)
    USART3_IRQHandler                        0x080001db   Thumb Code     0  startup_stm32f429xx.o(.text)
    USART6_IRQHandler                        0x080001db   Thumb Code     0  startup_stm32f429xx.o(.text)
    WWDG_IRQHandler                          0x080001db   Thumb Code     0  startup_stm32f429xx.o(.text)
    __scatterload                            0x080001e5   Thumb Code    28  init.o(.text)
    __scatterload_rt2                        0x080001e5   Thumb Code     0  init.o(.text)
    __decompress                             0x08000209   Thumb Code     0  __dczerorl2.o(.text)
    __decompress1                            0x08000209   Thumb Code    86  __dczerorl2.o(.text)
    BSP_LCD_Clear                            0x08000261   Thumb Code    48  stm324x9i_lcd.o(i.BSP_LCD_Clear)
    BSP_LCD_DisplayChar                      0x08000299   Thumb Code    44  stm324x9i_lcd.o(i.BSP_LCD_DisplayChar)
    BSP_LCD_DisplayStringAt                  0x080002cd   Thumb Code   192  stm324x9i_lcd.o(i.BSP_LCD_DisplayStringAt)
    BSP_LCD_DrawPixel                        0x08000395   Thumb Code    90  stm324x9i_lcd.o(i.BSP_LCD_DrawPixel)
    BSP_LCD_FillRect                         0x080003f9   Thumb Code   144  stm324x9i_lcd.o(i.BSP_LCD_FillRect)
    BSP_LCD_GetXSize                         0x08000495   Thumb Code    22  stm324x9i_lcd.o(i.BSP_LCD_GetXSize)
    BSP_LCD_GetYSize                         0x080004b5   Thumb Code    22  stm324x9i_lcd.o(i.BSP_LCD_GetYSize)
    BSP_LCD_Init                             0x080004d5   Thumb Code    30  stm324x9i_lcd.o(i.BSP_LCD_Init)
    BSP_LCD_SelectLayer                      0x080004f9   Thumb Code     6  stm324x9i_lcd.o(i.BSP_LCD_SelectLayer)
    BSP_LCD_SetBackColor                     0x08000505   Thumb Code    18  stm324x9i_lcd.o(i.BSP_LCD_SetBackColor)
    BSP_LCD_SetFont                          0x08000521   Thumb Code    18  stm324x9i_lcd.o(i.BSP_LCD_SetFont)
    BSP_LCD_SetLayerVisible                  0x0800053d   Thumb Code    40  stm324x9i_lcd.o(i.BSP_LCD_SetLayerVisible)
    BSP_LCD_SetTextColor                     0x08000569   Thumb Code    16  stm324x9i_lcd.o(i.BSP_LCD_SetTextColor)
    BSP_SDRAM_Init                           0x08000581   Thumb Code    16  stm324x9i_sdram.o(i.BSP_SDRAM_Init)
    BSP_SDRAM_Initialization_sequence        0x08000595   Thumb Code   122  stm324x9i_sdram.o(i.BSP_SDRAM_Initialization_sequence)
    DMA2_Stream3_IRQHandler                  0x080006c5   Thumb Code     6  stm32f4xx_it.o(i.DMA2_Stream3_IRQHandler)
    DMA2_Stream6_IRQHandler                  0x080006d1   Thumb Code     6  stm32f4xx_it.o(i.DMA2_Stream6_IRQHandler)
    FMC_SDRAM_Init                           0x080007fd   Thumb Code    94  stm32f4xx_ll_fmc.o(i.FMC_SDRAM_Init)
    FMC_SDRAM_ProgramRefreshRate             0x0800085b   Thumb Code    12  stm32f4xx_ll_fmc.o(i.FMC_SDRAM_ProgramRefreshRate)
    FMC_SDRAM_SendCommand                    0x08000867   Thumb Code    80  stm32f4xx_ll_fmc.o(i.FMC_SDRAM_SendCommand)
    FMC_SDRAM_Timing_Init                    0x080008b7   Thumb Code   124  stm32f4xx_ll_fmc.o(i.FMC_SDRAM_Timing_Init)
    HAL_DMA2D_ConfigLayer                    0x08000935   Thumb Code   250  stm32f4xx_hal_dma2d.o(i.HAL_DMA2D_ConfigLayer)
    HAL_DMA2D_Init                           0x08000a35   Thumb Code    92  stm32f4xx_hal_dma2d.o(i.HAL_DMA2D_Init)
    HAL_DMA2D_MspInit                        0x08000a91   Thumb Code    36  dma2d.o(i.HAL_DMA2D_MspInit)
    HAL_DMA2D_PollForTransfer                0x08000ab9   Thumb Code   268  stm32f4xx_hal_dma2d.o(i.HAL_DMA2D_PollForTransfer)
    HAL_DMA2D_Start                          0x08000bc5   Thumb Code    66  stm32f4xx_hal_dma2d.o(i.HAL_DMA2D_Start)
    HAL_DMA_Abort                            0x08000c07   Thumb Code    90  stm32f4xx_hal_dma.o(i.HAL_DMA_Abort)
    HAL_DMA_IRQHandler                       0x08000c61   Thumb Code   470  stm32f4xx_hal_dma.o(i.HAL_DMA_IRQHandler)
    HAL_DMA_Init                             0x08000e41   Thumb Code   144  stm32f4xx_hal_dma.o(i.HAL_DMA_Init)
    HAL_DMA_Start_IT                         0x08000ed5   Thumb Code    82  stm32f4xx_hal_dma.o(i.HAL_DMA_Start_IT)
    HAL_Delay                                0x08000f27   Thumb Code    22  stm32f4xx_hal.o(i.HAL_Delay)
    HAL_GPIO_Init                            0x08000ff5   Thumb Code   518  stm32f4xx_hal_gpio.o(i.HAL_GPIO_Init)
    HAL_GetTick                              0x0800120d   Thumb Code     6  stm32f4xx_hal.o(i.HAL_GetTick)
    HAL_IncTick                              0x08001219   Thumb Code    10  stm32f4xx_hal.o(i.HAL_IncTick)
    HAL_Init                                 0x08001229   Thumb Code    48  stm32f4xx_hal.o(i.HAL_Init)
    HAL_InitTick                             0x0800125d   Thumb Code    34  stm32f4xx_hal.o(i.HAL_InitTick)
    HAL_LTDC_ConfigLayer                     0x0800127f   Thumb Code   124  stm32f4xx_hal_ltdc.o(i.HAL_LTDC_ConfigLayer)
    HAL_LTDC_Init                            0x080012fd   Thumb Code   264  stm32f4xx_hal_ltdc.o(i.HAL_LTDC_Init)
    HAL_LTDC_MspInit                         0x08001409   Thumb Code   192  ltdc.o(i.HAL_LTDC_MspInit)
    HAL_MspInit                              0x080014e9   Thumb Code    22  stm32f4xx_hal_msp.o(i.HAL_MspInit)
    HAL_NVIC_EnableIRQ                       0x080014ff   Thumb Code    24  stm32f4xx_hal_cortex.o(i.HAL_NVIC_EnableIRQ)
    HAL_NVIC_SetPriority                     0x08001519   Thumb Code    98  stm32f4xx_hal_cortex.o(i.HAL_NVIC_SetPriority)
    HAL_NVIC_SetPriorityGrouping             0x08001581   Thumb Code    30  stm32f4xx_hal_cortex.o(i.HAL_NVIC_SetPriorityGrouping)
    HAL_PCDEx_SetRxFiFo                      0x080015a5   Thumb Code     8  stm32f4xx_hal_pcd_ex.o(i.HAL_PCDEx_SetRxFiFo)
    HAL_PCDEx_SetTxFiFo                      0x080015ad   Thumb Code    72  stm32f4xx_hal_pcd_ex.o(i.HAL_PCDEx_SetTxFiFo)
    HAL_PCD_ConnectCallback                  0x080015f5   Thumb Code     8  usbd_conf.o(i.HAL_PCD_ConnectCallback)
    HAL_PCD_DataInStageCallback              0x080015fd   Thumb Code    18  usbd_conf.o(i.HAL_PCD_DataInStageCallback)
    HAL_PCD_DataOutStageCallback             0x0800160f   Thumb Code    20  usbd_conf.o(i.HAL_PCD_DataOutStageCallback)
    HAL_PCD_DisconnectCallback               0x08001623   Thumb Code     8  usbd_conf.o(i.HAL_PCD_DisconnectCallback)
    HAL_PCD_EP_Close                         0x0800162b   Thumb Code    72  stm32f4xx_hal_pcd.o(i.HAL_PCD_EP_Close)
    HAL_PCD_EP_ClrStall                      0x08001673   Thumb Code    84  stm32f4xx_hal_pcd.o(i.HAL_PCD_EP_ClrStall)
    HAL_PCD_EP_Flush                         0x080016c7   Thumb Code    54  stm32f4xx_hal_pcd.o(i.HAL_PCD_EP_Flush)
    HAL_PCD_EP_GetRxCount                    0x080016fd   Thumb Code    20  stm32f4xx_hal_pcd.o(i.HAL_PCD_EP_GetRxCount)
    HAL_PCD_EP_Open                          0x08001711   Thumb Code    94  stm32f4xx_hal_pcd.o(i.HAL_PCD_EP_Open)
    HAL_PCD_EP_Receive                       0x0800176f   Thumb Code    92  stm32f4xx_hal_pcd.o(i.HAL_PCD_EP_Receive)
    HAL_PCD_EP_SetStall                      0x080017cb   Thumb Code   102  stm32f4xx_hal_pcd.o(i.HAL_PCD_EP_SetStall)
    HAL_PCD_EP_Transmit                      0x08001831   Thumb Code    90  stm32f4xx_hal_pcd.o(i.HAL_PCD_EP_Transmit)
    HAL_PCD_IRQHandler                       0x0800188b   Thumb Code  1076  stm32f4xx_hal_pcd.o(i.HAL_PCD_IRQHandler)
    HAL_PCD_ISOINIncompleteCallback          0x08001cbf   Thumb Code     8  usbd_conf.o(i.HAL_PCD_ISOINIncompleteCallback)
    HAL_PCD_ISOOUTIncompleteCallback         0x08001cc7   Thumb Code     8  usbd_conf.o(i.HAL_PCD_ISOOUTIncompleteCallback)
    HAL_PCD_Init                             0x08001ccf   Thumb Code   250  stm32f4xx_hal_pcd.o(i.HAL_PCD_Init)
    HAL_PCD_MspInit                          0x08001dc9   Thumb Code   114  usbd_conf.o(i.HAL_PCD_MspInit)
    HAL_PCD_ResetCallback                    0x08001e49   Thumb Code    34  usbd_conf.o(i.HAL_PCD_ResetCallback)
    HAL_PCD_ResumeCallback                   0x08001e6b   Thumb Code     8  usbd_conf.o(i.HAL_PCD_ResumeCallback)
    HAL_PCD_SOFCallback                      0x08001e73   Thumb Code     8  usbd_conf.o(i.HAL_PCD_SOFCallback)
    HAL_PCD_SetAddress                       0x08001e7b   Thumb Code    36  stm32f4xx_hal_pcd.o(i.HAL_PCD_SetAddress)
    HAL_PCD_SetupStageCallback               0x08001e9f   Thumb Code    14  usbd_conf.o(i.HAL_PCD_SetupStageCallback)
    HAL_PCD_Start                            0x08001ead   Thumb Code    42  stm32f4xx_hal_pcd.o(i.HAL_PCD_Start)
    HAL_PCD_SuspendCallback                  0x08001ed9   Thumb Code    44  usbd_conf.o(i.HAL_PCD_SuspendCallback)
    HAL_RCCEx_PeriphCLKConfig                0x08001f09   Thumb Code   724  stm32f4xx_hal_rcc_ex.o(i.HAL_RCCEx_PeriphCLKConfig)
    HAL_RCC_ClockConfig                      0x08002209   Thumb Code   628  stm32f4xx_hal_rcc.o(i.HAL_RCC_ClockConfig)
    HAL_RCC_GetHCLKFreq                      0x08002489   Thumb Code    38  stm32f4xx_hal_rcc.o(i.HAL_RCC_GetHCLKFreq)
    HAL_RCC_GetSysClockFreq                  0x080024bd   Thumb Code   126  stm32f4xx_hal_rcc.o(i.HAL_RCC_GetSysClockFreq)
    HAL_RCC_OscConfig                        0x08002549   Thumb Code  1072  stm32f4xx_hal_rcc.o(i.HAL_RCC_OscConfig)
    HAL_SDRAM_Init                           0x08002979   Thumb Code    68  stm32f4xx_hal_sdram.o(i.HAL_SDRAM_Init)
    HAL_SDRAM_MspInit                        0x080029bd   Thumb Code     4  fmc.o(i.HAL_SDRAM_MspInit)
    HAL_SDRAM_ProgramRefreshRate             0x080029c1   Thumb Code    38  stm32f4xx_hal_sdram.o(i.HAL_SDRAM_ProgramRefreshRate)
    HAL_SDRAM_SendCommand                    0x080029e7   Thumb Code    56  stm32f4xx_hal_sdram.o(i.HAL_SDRAM_SendCommand)
    HAL_SD_CheckReadOperation                0x08002a1f   Thumb Code   112  stm32f4xx_hal_sd.o(i.HAL_SD_CheckReadOperation)
    HAL_SD_CheckWriteOperation               0x08002a8f   Thumb Code   122  stm32f4xx_hal_sd.o(i.HAL_SD_CheckWriteOperation)
    HAL_SD_DMA_RxCpltCallback                0x08002b09   Thumb Code     2  stm32f4xx_hal_sd.o(i.HAL_SD_DMA_RxCpltCallback)
    HAL_SD_DMA_RxErrorCallback               0x08002b0b   Thumb Code     2  stm32f4xx_hal_sd.o(i.HAL_SD_DMA_RxErrorCallback)
    HAL_SD_DMA_TxCpltCallback                0x08002b0d   Thumb Code     2  stm32f4xx_hal_sd.o(i.HAL_SD_DMA_TxCpltCallback)
    HAL_SD_DMA_TxErrorCallback               0x08002b0f   Thumb Code     2  stm32f4xx_hal_sd.o(i.HAL_SD_DMA_TxErrorCallback)
    HAL_SD_GetStatus                         0x08002b11   Thumb Code    26  stm32f4xx_hal_sd.o(i.HAL_SD_GetStatus)
    HAL_SD_Get_CardInfo                      0x08002b2b   Thumb Code   716  stm32f4xx_hal_sd.o(i.HAL_SD_Get_CardInfo)
    HAL_SD_IRQHandler                        0x08002df7   Thumb Code   170  stm32f4xx_hal_sd.o(i.HAL_SD_IRQHandler)
    HAL_SD_Init                              0x08002ea1   Thumb Code   154  stm32f4xx_hal_sd.o(i.HAL_SD_Init)
    HAL_SD_MspInit                           0x08002f3d   Thumb Code   290  sdio.o(i.HAL_SD_MspInit)
    HAL_SD_ReadBlocks_DMA                    0x08003079   Thumb Code   254  stm32f4xx_hal_sd.o(i.HAL_SD_ReadBlocks_DMA)
    HAL_SD_StopTransfer                      0x08003185   Thumb Code    44  stm32f4xx_hal_sd.o(i.HAL_SD_StopTransfer)
    HAL_SD_WideBusOperation_Config           0x080031b1   Thumb Code   130  stm32f4xx_hal_sd.o(i.HAL_SD_WideBusOperation_Config)
    HAL_SD_WriteBlocks_DMA                   0x08003235   Thumb Code   258  stm32f4xx_hal_sd.o(i.HAL_SD_WriteBlocks_DMA)
    HAL_SD_XferCpltCallback                  0x08003345   Thumb Code     2  stm32f4xx_hal_sd.o(i.HAL_SD_XferCpltCallback)
    HAL_SD_XferErrorCallback                 0x08003347   Thumb Code     2  stm32f4xx_hal_sd.o(i.HAL_SD_XferErrorCallback)
    HAL_SYSTICK_CLKSourceConfig              0x08003349   Thumb Code    28  stm32f4xx_hal_cortex.o(i.HAL_SYSTICK_CLKSourceConfig)
    HAL_SYSTICK_Callback                     0x08003365   Thumb Code     2  stm32f4xx_hal_cortex.o(i.HAL_SYSTICK_Callback)
    HAL_SYSTICK_Config                       0x08003369   Thumb Code    36  stm32f4xx_hal_cortex.o(i.HAL_SYSTICK_Config)
    HAL_SYSTICK_IRQHandler                   0x08003391   Thumb Code     8  stm32f4xx_hal_cortex.o(i.HAL_SYSTICK_IRQHandler)
    LCD_LOG_DeInit                           0x08003399   Thumb Code    34  lcd_log.o(i.LCD_LOG_DeInit)
    LCD_LOG_Init                             0x080033c1   Thumb Code    16  lcd_log.o(i.LCD_LOG_Init)
    LCD_LOG_SetFooter                        0x080033d1   Thumb Code   106  lcd_log.o(i.LCD_LOG_SetFooter)
    LCD_LOG_SetHeader                        0x08003445   Thumb Code    90  lcd_log.o(i.LCD_LOG_SetHeader)
    MSC_BOT_CplClrFeature                    0x08003805   Thumb Code    44  usbd_msc_bot.o(i.MSC_BOT_CplClrFeature)
    MSC_BOT_DataIn                           0x08003831   Thumb Code    66  usbd_msc_bot.o(i.MSC_BOT_DataIn)
    MSC_BOT_DataOut                          0x08003873   Thumb Code    60  usbd_msc_bot.o(i.MSC_BOT_DataOut)
    MSC_BOT_DeInit                           0x080038af   Thumb Code    10  usbd_msc_bot.o(i.MSC_BOT_DeInit)
    MSC_BOT_Init                             0x080038b9   Thumb Code    66  usbd_msc_bot.o(i.MSC_BOT_Init)
    MSC_BOT_Reset                            0x080038fb   Thumb Code    24  usbd_msc_bot.o(i.MSC_BOT_Reset)
    MSC_BOT_SendCSW                          0x08003915   Thumb Code    54  usbd_msc_bot.o(i.MSC_BOT_SendCSW)
    MX_DMA2D_Init                            0x08003989   Thumb Code    44  dma2d.o(i.MX_DMA2D_Init)
    MX_DMA_Init                              0x080039bd   Thumb Code   106  dma.o(i.MX_DMA_Init)
    MX_FMC_Init                              0x08003a35   Thumb Code    80  fmc.o(i.MX_FMC_Init)
    MX_GPIO_Init                             0x08003a8d   Thumb Code   214  gpio.o(i.MX_GPIO_Init)
    MX_LTDC_Init                             0x08003b75   Thumb Code   200  ltdc.o(i.MX_LTDC_Init)
    MX_SDIO_SD_Init                          0x08003c49   Thumb Code    44  sdio.o(i.MX_SDIO_SD_Init)
    MX_USB_DEVICE_Init                       0x08003c7d   Thumb Code    38  usb_device.o(i.MX_USB_DEVICE_Init)
    OTG_FS_IRQHandler                        0x08003cb5   Thumb Code     6  stm32f4xx_it.o(i.OTG_FS_IRQHandler)
    SCSI_ProcessCmd                          0x08003e11   Thumb Code   172  usbd_msc_scsi.o(i.SCSI_ProcessCmd)
    SCSI_SenseCode                           0x080041f1   Thumb Code    54  usbd_msc_scsi.o(i.SCSI_SenseCode)
    SDIO_DataConfig                          0x080043c9   Thumb Code    36  stm32f4xx_ll_sdmmc.o(i.SDIO_DataConfig)
    SDIO_GetCommandResponse                  0x080043ed   Thumb Code     6  stm32f4xx_ll_sdmmc.o(i.SDIO_GetCommandResponse)
    SDIO_GetPowerState                       0x080043f3   Thumb Code     8  stm32f4xx_ll_sdmmc.o(i.SDIO_GetPowerState)
    SDIO_GetResponse                         0x080043fd   Thumb Code    16  stm32f4xx_ll_sdmmc.o(i.SDIO_GetResponse)
    SDIO_IRQHandler                          0x08004411   Thumb Code     6  stm32f4xx_it.o(i.SDIO_IRQHandler)
    SDIO_Init                                0x0800441d   Thumb Code    44  stm32f4xx_ll_sdmmc.o(i.SDIO_Init)
    SDIO_PowerState_ON                       0x08004449   Thumb Code     8  stm32f4xx_ll_sdmmc.o(i.SDIO_PowerState_ON)
    SDIO_ReadFIFO                            0x08004451   Thumb Code     6  stm32f4xx_ll_sdmmc.o(i.SDIO_ReadFIFO)
    SDIO_SendCommand                         0x08004457   Thumb Code    32  stm32f4xx_ll_sdmmc.o(i.SDIO_SendCommand)
    SysTick_Handler                          0x08004d71   Thumb Code    14  stm32f4xx_it.o(i.SysTick_Handler)
    SystemClock_Config                       0x08004d81   Thumb Code   158  main.o(i.SystemClock_Config)
    SystemInit                               0x08004e29   Thumb Code    64  system_stm32f4xx.o(i.SystemInit)
    USBD_ClrClassConfig                      0x08004e81   Thumb Code    14  usbd_core.o(i.USBD_ClrClassConfig)
    USBD_CtlContinueRx                       0x08004ecb   Thumb Code    16  usbd_ioreq.o(i.USBD_CtlContinueRx)
    USBD_CtlContinueSendData                 0x08004edb   Thumb Code    16  usbd_ioreq.o(i.USBD_CtlContinueSendData)
    USBD_CtlError                            0x08004eeb   Thumb Code    24  usbd_ctlreq.o(i.USBD_CtlError)
    USBD_CtlReceiveStatus                    0x08004f03   Thumb Code    22  usbd_ioreq.o(i.USBD_CtlReceiveStatus)
    USBD_CtlSendData                         0x08004f19   Thumb Code    26  usbd_ioreq.o(i.USBD_CtlSendData)
    USBD_CtlSendStatus                       0x08004f33   Thumb Code    22  usbd_ioreq.o(i.USBD_CtlSendStatus)
    USBD_FS_ConfigStrDescriptor              0x08004f49   Thumb Code    32  usbd_desc.o(i.USBD_FS_ConfigStrDescriptor)
    USBD_FS_DeviceDescriptor                 0x08004f79   Thumb Code     8  usbd_desc.o(i.USBD_FS_DeviceDescriptor)
    USBD_FS_InterfaceStrDescriptor           0x08004f85   Thumb Code    32  usbd_desc.o(i.USBD_FS_InterfaceStrDescriptor)
    USBD_FS_LangIDStrDescriptor              0x08004fb9   Thumb Code     8  usbd_desc.o(i.USBD_FS_LangIDStrDescriptor)
    USBD_FS_ManufacturerStrDescriptor        0x08004fc5   Thumb Code    16  usbd_desc.o(i.USBD_FS_ManufacturerStrDescriptor)
    USBD_FS_ProductStrDescriptor             0x08004fed   Thumb Code    32  usbd_desc.o(i.USBD_FS_ProductStrDescriptor)
    USBD_FS_SerialStrDescriptor              0x08005025   Thumb Code    32  usbd_desc.o(i.USBD_FS_SerialStrDescriptor)
    USBD_GetString                           0x080051f7   Thumb Code    66  usbd_ctlreq.o(i.USBD_GetString)
    USBD_Init                                0x08005239   Thumb Code    44  usbd_core.o(i.USBD_Init)
    USBD_LL_ClearStallEP                     0x08005265   Thumb Code    14  usbd_conf.o(i.USBD_LL_ClearStallEP)
    USBD_LL_CloseEP                          0x08005273   Thumb Code    14  usbd_conf.o(i.USBD_LL_CloseEP)
    USBD_LL_DataInStage                      0x08005281   Thumb Code   186  usbd_core.o(i.USBD_LL_DataInStage)
    USBD_LL_DataOutStage                     0x0800533b   Thumb Code   114  usbd_core.o(i.USBD_LL_DataOutStage)
    USBD_LL_DevConnected                     0x080053ad   Thumb Code     4  usbd_core.o(i.USBD_LL_DevConnected)
    USBD_LL_DevDisconnected                  0x080053b1   Thumb Code    22  usbd_core.o(i.USBD_LL_DevDisconnected)
    USBD_LL_FlushEP                          0x080053c7   Thumb Code    14  usbd_conf.o(i.USBD_LL_FlushEP)
    USBD_LL_GetRxDataSize                    0x080053d5   Thumb Code     8  usbd_conf.o(i.USBD_LL_GetRxDataSize)
    USBD_LL_Init                             0x080053dd   Thumb Code    88  usbd_conf.o(i.USBD_LL_Init)
    USBD_LL_IsStallEP                        0x08005439   Thumb Code    34  usbd_conf.o(i.USBD_LL_IsStallEP)
    USBD_LL_IsoINIncomplete                  0x0800545b   Thumb Code     4  usbd_core.o(i.USBD_LL_IsoINIncomplete)
    USBD_LL_IsoOUTIncomplete                 0x0800545f   Thumb Code     4  usbd_core.o(i.USBD_LL_IsoOUTIncomplete)
    USBD_LL_OpenEP                           0x08005463   Thumb Code    20  usbd_conf.o(i.USBD_LL_OpenEP)
    USBD_LL_PrepareReceive                   0x08005477   Thumb Code    14  usbd_conf.o(i.USBD_LL_PrepareReceive)
    USBD_LL_Reset                            0x08005485   Thumb Code    64  usbd_core.o(i.USBD_LL_Reset)
    USBD_LL_Resume                           0x080054c5   Thumb Code    12  usbd_core.o(i.USBD_LL_Resume)
    USBD_LL_SOF                              0x080054d1   Thumb Code    24  usbd_core.o(i.USBD_LL_SOF)
    USBD_LL_SetSpeed                         0x080054e9   Thumb Code     6  usbd_core.o(i.USBD_LL_SetSpeed)
    USBD_LL_SetUSBAddress                    0x080054ef   Thumb Code    14  usbd_conf.o(i.USBD_LL_SetUSBAddress)
    USBD_LL_SetupStage                       0x080054fd   Thumb Code    94  usbd_core.o(i.USBD_LL_SetupStage)
    USBD_LL_StallEP                          0x0800555b   Thumb Code    14  usbd_conf.o(i.USBD_LL_StallEP)
    USBD_LL_Start                            0x08005569   Thumb Code    14  usbd_conf.o(i.USBD_LL_Start)
    USBD_LL_Suspend                          0x08005577   Thumb Code    18  usbd_core.o(i.USBD_LL_Suspend)
    USBD_LL_Transmit                         0x08005589   Thumb Code    14  usbd_conf.o(i.USBD_LL_Transmit)
    USBD_MSC_DataIn                          0x08005597   Thumb Code    10  usbd_msc.o(i.USBD_MSC_DataIn)
    USBD_MSC_DataOut                         0x080055a1   Thumb Code    10  usbd_msc.o(i.USBD_MSC_DataOut)
    USBD_MSC_DeInit                          0x080055ab   Thumb Code    46  usbd_msc.o(i.USBD_MSC_DeInit)
    USBD_MSC_GetDeviceQualifierDescriptor    0x080055d9   Thumb Code     8  usbd_msc.o(i.USBD_MSC_GetDeviceQualifierDescriptor)
    USBD_MSC_GetFSCfgDesc                    0x080055e5   Thumb Code     8  usbd_msc.o(i.USBD_MSC_GetFSCfgDesc)
    USBD_MSC_GetHSCfgDesc                    0x080055f1   Thumb Code     8  usbd_msc.o(i.USBD_MSC_GetHSCfgDesc)
    USBD_MSC_GetOtherSpeedCfgDesc            0x080055fd   Thumb Code     8  usbd_msc.o(i.USBD_MSC_GetOtherSpeedCfgDesc)
    USBD_MSC_Init                            0x08005609   Thumb Code    94  usbd_msc.o(i.USBD_MSC_Init)
    USBD_MSC_RegisterStorage                 0x08005667   Thumb Code    12  usbd_msc.o(i.USBD_MSC_RegisterStorage)
    USBD_MSC_Setup                           0x08005673   Thumb Code   264  usbd_msc.o(i.USBD_MSC_Setup)
    USBD_ParseSetupRequest                   0x0800577b   Thumb Code    40  usbd_ctlreq.o(i.USBD_ParseSetupRequest)
    USBD_RegisterClass                       0x080057a3   Thumb Code    18  usbd_core.o(i.USBD_RegisterClass)
    USBD_RunTestMode                         0x080057b5   Thumb Code     4  usbd_core.o(i.USBD_RunTestMode)
    USBD_SetClassConfig                      0x0800580d   Thumb Code    24  usbd_core.o(i.USBD_SetClassConfig)
    USBD_Start                               0x0800590d   Thumb Code    10  usbd_core.o(i.USBD_Start)
    USBD_StdDevReq                           0x08005917   Thumb Code    92  usbd_ctlreq.o(i.USBD_StdDevReq)
    USBD_StdEPReq                            0x08005973   Thumb Code   298  usbd_ctlreq.o(i.USBD_StdEPReq)
    USBD_StdItfReq                           0x08005a9d   Thumb Code    68  usbd_ctlreq.o(i.USBD_StdItfReq)
    USB_ActivateEndpoint                     0x08005ae1   Thumb Code   144  stm32f4xx_ll_usb.o(i.USB_ActivateEndpoint)
    USB_ActivateSetup                        0x08005b75   Thumb Code    52  stm32f4xx_ll_usb.o(i.USB_ActivateSetup)
    USB_CoreInit                             0x08005ba9   Thumb Code   114  stm32f4xx_ll_usb.o(i.USB_CoreInit)
    USB_DeactivateEndpoint                   0x08005c59   Thumb Code   126  stm32f4xx_ll_usb.o(i.USB_DeactivateEndpoint)
    USB_DevConnect                           0x08005cd7   Thumb Code    24  stm32f4xx_ll_usb.o(i.USB_DevConnect)
    USB_DevDisconnect                        0x08005cef   Thumb Code    24  stm32f4xx_ll_usb.o(i.USB_DevDisconnect)
    USB_DevInit                              0x08005d09   Thumb Code   326  stm32f4xx_ll_usb.o(i.USB_DevInit)
    USB_DisableGlobalInt                     0x08005e59   Thumb Code    12  stm32f4xx_ll_usb.o(i.USB_DisableGlobalInt)
    USB_EP0StartXfer                         0x08005e65   Thumb Code   346  stm32f4xx_ll_usb.o(i.USB_EP0StartXfer)
    USB_EP0_OutStart                         0x08005fbf   Thumb Code    62  stm32f4xx_ll_usb.o(i.USB_EP0_OutStart)
    USB_EPClearStall                         0x08005ffd   Thumb Code   100  stm32f4xx_ll_usb.o(i.USB_EPClearStall)
    USB_EPSetStall                           0x08006061   Thumb Code   100  stm32f4xx_ll_usb.o(i.USB_EPSetStall)
    USB_EPStartXfer                          0x080060c5   Thumb Code   608  stm32f4xx_ll_usb.o(i.USB_EPStartXfer)
    USB_EnableGlobalInt                      0x08006325   Thumb Code    12  stm32f4xx_ll_usb.o(i.USB_EnableGlobalInt)
    USB_FlushRxFifo                          0x08006331   Thumb Code    30  stm32f4xx_ll_usb.o(i.USB_FlushRxFifo)
    USB_FlushTxFifo                          0x08006355   Thumb Code    34  stm32f4xx_ll_usb.o(i.USB_FlushTxFifo)
    USB_GetDevSpeed                          0x0800637d   Thumb Code    60  stm32f4xx_ll_usb.o(i.USB_GetDevSpeed)
    USB_GetMode                              0x080063b9   Thumb Code     8  stm32f4xx_ll_usb.o(i.USB_GetMode)
    USB_ReadDevAllInEpInterrupt              0x080063c1   Thumb Code    14  stm32f4xx_ll_usb.o(i.USB_ReadDevAllInEpInterrupt)
    USB_ReadDevAllOutEpInterrupt             0x080063cf   Thumb Code    14  stm32f4xx_ll_usb.o(i.USB_ReadDevAllOutEpInterrupt)
    USB_ReadDevInEPInterrupt                 0x080063dd   Thumb Code    30  stm32f4xx_ll_usb.o(i.USB_ReadDevInEPInterrupt)
    USB_ReadDevOutEPInterrupt                0x080063fb   Thumb Code    16  stm32f4xx_ll_usb.o(i.USB_ReadDevOutEPInterrupt)
    USB_ReadInterrupts                       0x0800640b   Thumb Code     8  stm32f4xx_ll_usb.o(i.USB_ReadInterrupts)
    USB_ReadPacket                           0x08006413   Thumb Code    36  stm32f4xx_ll_usb.o(i.USB_ReadPacket)
    USB_SetCurrentMode                       0x08006437   Thumb Code    46  stm32f4xx_ll_usb.o(i.USB_SetCurrentMode)
    USB_SetDevAddress                        0x08006465   Thumb Code    34  stm32f4xx_ll_usb.o(i.USB_SetDevAddress)
    USB_SetDevSpeed                          0x08006487   Thumb Code    14  stm32f4xx_ll_usb.o(i.USB_SetDevSpeed)
    USB_WritePacket                          0x08006495   Thumb Code    48  stm32f4xx_ll_usb.o(i.USB_WritePacket)
    __scatterload_copy                       0x080064c5   Thumb Code    14  handlers.o(i.__scatterload_copy)
    __scatterload_null                       0x080064d3   Thumb Code     2  handlers.o(i.__scatterload_null)
    __scatterload_zeroinit                   0x080064d5   Thumb Code    14  handlers.o(i.__scatterload_zeroinit)
    free                                     0x080064e5   Thumb Code    76  malloc.o(i.free)
    main                                     0x08006535   Thumb Code    76  main.o(i.main)
    malloc                                   0x080065bd   Thumb Code    92  malloc.o(i.malloc)
    STORAGE_Inquirydata_FS                   0x08006628   Data          36  usbd_storage_if.o(.constdata)
    Font24_Table                             0x0800664c   Data        6840  stm324x9i_lcd.o(.constdata)
    Font20_Table                             0x08008104   Data        3800  stm324x9i_lcd.o(.constdata)
    Font16_Table                             0x08008fdc   Data        3040  stm324x9i_lcd.o(.constdata)
    APBAHBPrescTable                         0x08009bc4   Data          16  stm32f4xx_hal_rcc.o(.constdata)
    MSC_Page00_Inquiry_Data                  0x08009bd4   Data           7  usbd_msc_data.o(.constdata)
    MSC_Mode_Sense6_data                     0x08009bdb   Data           8  usbd_msc_data.o(.constdata)
    MSC_Mode_Sense10_data                    0x08009be3   Data           8  usbd_msc_data.o(.constdata)
    Region$$Table$$Base                      0x08009bec   Number         0  anon$$obj.o(Region$$Table)
    Region$$Table$$Limit                     0x08009c0c   Number         0  anon$$obj.o(Region$$Table)
    FS_Desc                                  0x20000008   Data          28  usbd_desc.o(.data)
    USBD_LangIDDesc                          0x20000024   Data           4  usbd_desc.o(.data)
    USBD_FS_DeviceDesc                       0x20000028   Data          18  usbd_desc.o(.data)
    USBD_Storage_Interface_fops_FS           0x2000003c   Data          32  usbd_storage_if.o(.data)
    Font24                                   0x20000060   Data           8  stm324x9i_lcd.o(.data)
    Font20                                   0x20000068   Data           8  stm324x9i_lcd.o(.data)
    Font16                                   0x20000070   Data           8  stm324x9i_lcd.o(.data)
    LCD_CacheBuffer_yptr_invert              0x2000007c   Data           1  lcd_log.o(.data)
    LCD_ScrollActive                         0x2000007d   Data           1  lcd_log.o(.data)
    LCD_Lock                                 0x2000007e   Data           1  lcd_log.o(.data)
    LCD_Scrolled                             0x2000007f   Data           1  lcd_log.o(.data)
    LCD_CacheBuffer_xptr                     0x20000080   Data           2  lcd_log.o(.data)
    LCD_CacheBuffer_yptr_top                 0x20000082   Data           2  lcd_log.o(.data)
    LCD_CacheBuffer_yptr_bottom              0x20000084   Data           2  lcd_log.o(.data)
    LCD_CacheBuffer_yptr_top_bak             0x20000086   Data           2  lcd_log.o(.data)
    LCD_CacheBuffer_yptr_bottom_bak          0x20000088   Data           2  lcd_log.o(.data)
    LCD_ScrollBackStep                       0x2000008a   Data           2  lcd_log.o(.data)
    LCD_LineColor                            0x2000008c   Data           4  lcd_log.o(.data)
    SystemCoreClock                          0x20000090   Data           4  system_stm32f4xx.o(.data)
    USBD_MSC                                 0x20000098   Data          56  usbd_msc.o(.data)
    USBD_MSC_CfgHSDesc                       0x200000d0   Data          32  usbd_msc.o(.data)
    USBD_MSC_CfgFSDesc                       0x200000f0   Data          32  usbd_msc.o(.data)
    USBD_MSC_OtherSpeedCfgDesc               0x20000110   Data          32  usbd_msc.o(.data)
    USBD_MSC_DeviceQualifierDesc             0x20000130   Data          10  usbd_msc.o(.data)
    __microlib_freelist                      0x2000013c   Data           4  mvars.o(.data)
    __microlib_freelist_initialised          0x20000140   Data           4  mvars.o(.data)
    hdma2d                                   0x20000144   Data          64  dma2d.o(.bss)
    hltdc                                    0x20000184   Data         168  ltdc.o(.bss)
    hsdram1                                  0x2000022c   Data          52  fmc.o(.bss)
    hdma_memtomem_dma2_stream0               0x20000260   Data          88  dma.o(.bss)
    hpcd_USB_OTG_FS                          0x200002b8   Data         952  usbd_conf.o(.bss)
    USBD_StrDesc                             0x20000670   Data         512  usbd_desc.o(.bss)
    hUsbDeviceFS                             0x20000870   Data         548  usb_device.o(.bss)
    hsd                                      0x20000a98   Data          96  sdio.o(.bss)
    SDCardInfo                               0x20000af8   Data          88  sdio.o(.bss)
    hdma_sdio_rx                             0x20000b50   Data          88  sdio.o(.bss)
    hdma_sdio_tx                             0x20000ba8   Data          88  sdio.o(.bss)
    __heap_base                              0x20000c58   Data           0  startup_stm32f429xx.o(HEAP)
    __heap_limit                             0x20001c58   Data           0  startup_stm32f429xx.o(HEAP)
    __initial_sp                             0x20002058   Data           0  startup_stm32f429xx.o(STACK)



==============================================================================

Memory Map of the image

  Image Entry point : 0x080001ad

  Load Region LR_IROM1 (Base: 0x08000000, Size: 0x00009d50, Max: 0x00100000, ABSOLUTE, COMPRESSED[0x00009cc8])

    Execution Region ER_IROM1 (Base: 0x08000000, Size: 0x00009c0c, Max: 0x00100000, ABSOLUTE)

    Base Addr    Size         Type   Attr      Idx    E Section Name        Object

    0x08000000   0x000001ac   Data   RO         4164    RESET               startup_stm32f429xx.o
    0x080001ac   0x00000000   Code   RO         4752  * .ARM.Collect$$$$00000000  mc_w.l(entry.o)
    0x080001ac   0x00000004   Code   RO         4783    .ARM.Collect$$$$00000001  mc_w.l(entry2.o)
    0x080001b0   0x00000004   Code   RO         4786    .ARM.Collect$$$$00000004  mc_w.l(entry5.o)
    0x080001b4   0x00000000   Code   RO         4788    .ARM.Collect$$$$00000008  mc_w.l(entry7b.o)
    0x080001b4   0x00000000   Code   RO         4790    .ARM.Collect$$$$0000000A  mc_w.l(entry8b.o)
    0x080001b4   0x00000008   Code   RO         4791    .ARM.Collect$$$$0000000B  mc_w.l(entry9a.o)
    0x080001bc   0x00000000   Code   RO         4793    .ARM.Collect$$$$0000000D  mc_w.l(entry10a.o)
    0x080001bc   0x00000000   Code   RO         4795    .ARM.Collect$$$$0000000F  mc_w.l(entry11a.o)
    0x080001bc   0x00000004   Code   RO         4784    .ARM.Collect$$$$00002712  mc_w.l(entry2.o)
    0x080001c0   0x00000024   Code   RO         4165    .text               startup_stm32f429xx.o
    0x080001e4   0x00000024   Code   RO         4803    .text               mc_w.l(init.o)
    0x08000208   0x00000056   Code   RO         4813    .text               mc_w.l(__dczerorl2.o)
    0x0800025e   0x00000002   PAD
    0x08000260   0x00000038   Code   RO          919    i.BSP_LCD_Clear     stm324x9i_lcd.o
    0x08000298   0x00000034   Code   RO          923    i.BSP_LCD_DisplayChar  stm324x9i_lcd.o
    0x080002cc   0x000000c8   Code   RO          926    i.BSP_LCD_DisplayStringAt  stm324x9i_lcd.o
    0x08000394   0x00000064   Code   RO          933    i.BSP_LCD_DrawPixel  stm324x9i_lcd.o
    0x080003f8   0x0000009c   Code   RO          940    i.BSP_LCD_FillRect  stm324x9i_lcd.o
    0x08000494   0x00000020   Code   RO          944    i.BSP_LCD_GetXSize  stm324x9i_lcd.o
    0x080004b4   0x00000020   Code   RO          945    i.BSP_LCD_GetYSize  stm324x9i_lcd.o
    0x080004d4   0x00000024   Code   RO          946    i.BSP_LCD_Init      stm324x9i_lcd.o
    0x080004f8   0x0000000c   Code   RO          953    i.BSP_LCD_SelectLayer  stm324x9i_lcd.o
    0x08000504   0x0000001c   Code   RO          954    i.BSP_LCD_SetBackColor  stm324x9i_lcd.o
    0x08000520   0x0000001c   Code   RO          956    i.BSP_LCD_SetFont   stm324x9i_lcd.o
    0x0800053c   0x0000002c   Code   RO          958    i.BSP_LCD_SetLayerVisible  stm324x9i_lcd.o
    0x08000568   0x00000018   Code   RO          960    i.BSP_LCD_SetTextColor  stm324x9i_lcd.o
    0x08000580   0x00000014   Code   RO         1257    i.BSP_SDRAM_Init    stm324x9i_sdram.o
    0x08000594   0x00000084   Code   RO         1258    i.BSP_SDRAM_Initialization_sequence  stm324x9i_sdram.o
    0x08000618   0x000000ac   Code   RO         3071    i.DMA2D_SetConfig   stm32f4xx_hal_dma2d.o
    0x080006c4   0x0000000c   Code   RO          225    i.DMA2_Stream3_IRQHandler  stm32f4xx_it.o
    0x080006d0   0x0000000c   Code   RO          226    i.DMA2_Stream6_IRQHandler  stm32f4xx_it.o
    0x080006dc   0x00000034   Code   RO         1704    i.DMA_CalcBaseAndBitshift  stm32f4xx_hal_dma.o
    0x08000710   0x00000038   Code   RO         1705    i.DMA_SetConfig     stm32f4xx_hal_dma.o
    0x08000748   0x000000b4   Code   RO          964    i.DrawChar          stm324x9i_lcd.o
    0x080007fc   0x0000005e   Code   RO         2755    i.FMC_SDRAM_Init    stm32f4xx_ll_fmc.o
    0x0800085a   0x0000000c   Code   RO         2756    i.FMC_SDRAM_ProgramRefreshRate  stm32f4xx_ll_fmc.o
    0x08000866   0x00000050   Code   RO         2757    i.FMC_SDRAM_SendCommand  stm32f4xx_ll_fmc.o
    0x080008b6   0x0000007c   Code   RO         2759    i.FMC_SDRAM_Timing_Init  stm32f4xx_ll_fmc.o
    0x08000932   0x00000002   PAD
    0x08000934   0x00000100   Code   RO         3076    i.HAL_DMA2D_ConfigLayer  stm32f4xx_hal_dma2d.o
    0x08000a34   0x0000005c   Code   RO         3083    i.HAL_DMA2D_Init    stm32f4xx_hal_dma2d.o
    0x08000a90   0x00000028   Code   RO          302    i.HAL_DMA2D_MspInit  dma2d.o
    0x08000ab8   0x0000010c   Code   RO         3086    i.HAL_DMA2D_PollForTransfer  stm32f4xx_hal_dma2d.o
    0x08000bc4   0x00000042   Code   RO         3089    i.HAL_DMA2D_Start   stm32f4xx_hal_dma2d.o
    0x08000c06   0x0000005a   Code   RO         1706    i.HAL_DMA_Abort     stm32f4xx_hal_dma.o
    0x08000c60   0x000001e0   Code   RO         1710    i.HAL_DMA_IRQHandler  stm32f4xx_hal_dma.o
    0x08000e40   0x00000094   Code   RO         1711    i.HAL_DMA_Init      stm32f4xx_hal_dma.o
    0x08000ed4   0x00000052   Code   RO         1714    i.HAL_DMA_Start_IT  stm32f4xx_hal_dma.o
    0x08000f26   0x00000016   Code   RO         1830    i.HAL_Delay         stm32f4xx_hal.o
    0x08000f3c   0x000000b8   Code   RO          432    i.HAL_FMC_MspInit   fmc.o
    0x08000ff4   0x00000218   Code   RO         2375    i.HAL_GPIO_Init     stm32f4xx_hal_gpio.o
    0x0800120c   0x0000000c   Code   RO         1838    i.HAL_GetTick       stm32f4xx_hal.o
    0x08001218   0x00000010   Code   RO         1839    i.HAL_IncTick       stm32f4xx_hal.o
    0x08001228   0x00000034   Code   RO         1840    i.HAL_Init          stm32f4xx_hal.o
    0x0800125c   0x00000022   Code   RO         1841    i.HAL_InitTick      stm32f4xx_hal.o
    0x0800127e   0x0000007c   Code   RO         1515    i.HAL_LTDC_ConfigLayer  stm32f4xx_hal_ltdc.o
    0x080012fa   0x00000002   PAD
    0x080012fc   0x0000010c   Code   RO         1527    i.HAL_LTDC_Init     stm32f4xx_hal_ltdc.o
    0x08001408   0x000000e0   Code   RO          344    i.HAL_LTDC_MspInit  ltdc.o
    0x080014e8   0x00000016   Code   RO          277    i.HAL_MspInit       stm32f4xx_hal_msp.o
    0x080014fe   0x00000018   Code   RO         1984    i.HAL_NVIC_EnableIRQ  stm32f4xx_hal_cortex.o
    0x08001516   0x00000002   PAD
    0x08001518   0x00000068   Code   RO         1990    i.HAL_NVIC_SetPriority  stm32f4xx_hal_cortex.o
    0x08001580   0x00000024   Code   RO         1991    i.HAL_NVIC_SetPriorityGrouping  stm32f4xx_hal_cortex.o
    0x080015a4   0x00000008   Code   RO         3268    i.HAL_PCDEx_SetRxFiFo  stm32f4xx_hal_pcd_ex.o
    0x080015ac   0x00000048   Code   RO         3269    i.HAL_PCDEx_SetTxFiFo  stm32f4xx_hal_pcd_ex.o
    0x080015f4   0x00000008   Code   RO          514    i.HAL_PCD_ConnectCallback  usbd_conf.o
    0x080015fc   0x00000012   Code   RO          515    i.HAL_PCD_DataInStageCallback  usbd_conf.o
    0x0800160e   0x00000014   Code   RO          516    i.HAL_PCD_DataOutStageCallback  usbd_conf.o
    0x08001622   0x00000008   Code   RO          517    i.HAL_PCD_DisconnectCallback  usbd_conf.o
    0x0800162a   0x00000048   Code   RO         3595    i.HAL_PCD_EP_Close  stm32f4xx_hal_pcd.o
    0x08001672   0x00000054   Code   RO         3596    i.HAL_PCD_EP_ClrStall  stm32f4xx_hal_pcd.o
    0x080016c6   0x00000036   Code   RO         3597    i.HAL_PCD_EP_Flush  stm32f4xx_hal_pcd.o
    0x080016fc   0x00000014   Code   RO         3598    i.HAL_PCD_EP_GetRxCount  stm32f4xx_hal_pcd.o
    0x08001710   0x0000005e   Code   RO         3599    i.HAL_PCD_EP_Open   stm32f4xx_hal_pcd.o
    0x0800176e   0x0000005c   Code   RO         3600    i.HAL_PCD_EP_Receive  stm32f4xx_hal_pcd.o
    0x080017ca   0x00000066   Code   RO         3601    i.HAL_PCD_EP_SetStall  stm32f4xx_hal_pcd.o
    0x08001830   0x0000005a   Code   RO         3602    i.HAL_PCD_EP_Transmit  stm32f4xx_hal_pcd.o
    0x0800188a   0x00000434   Code   RO         3604    i.HAL_PCD_IRQHandler  stm32f4xx_hal_pcd.o
    0x08001cbe   0x00000008   Code   RO          518    i.HAL_PCD_ISOINIncompleteCallback  usbd_conf.o
    0x08001cc6   0x00000008   Code   RO          519    i.HAL_PCD_ISOOUTIncompleteCallback  usbd_conf.o
    0x08001cce   0x000000fa   Code   RO         3607    i.HAL_PCD_Init      stm32f4xx_hal_pcd.o
    0x08001dc8   0x00000080   Code   RO          521    i.HAL_PCD_MspInit   usbd_conf.o
    0x08001e48   0x00000022   Code   RO          522    i.HAL_PCD_ResetCallback  usbd_conf.o
    0x08001e6a   0x00000008   Code   RO          523    i.HAL_PCD_ResumeCallback  usbd_conf.o
    0x08001e72   0x00000008   Code   RO          524    i.HAL_PCD_SOFCallback  usbd_conf.o
    0x08001e7a   0x00000024   Code   RO         3613    i.HAL_PCD_SetAddress  stm32f4xx_hal_pcd.o
    0x08001e9e   0x0000000e   Code   RO          525    i.HAL_PCD_SetupStageCallback  usbd_conf.o
    0x08001eac   0x0000002a   Code   RO         3615    i.HAL_PCD_Start     stm32f4xx_hal_pcd.o
    0x08001ed6   0x00000002   PAD
    0x08001ed8   0x00000030   Code   RO          526    i.HAL_PCD_SuspendCallback  usbd_conf.o
    0x08001f08   0x00000300   Code   RO         1788    i.HAL_RCCEx_PeriphCLKConfig  stm32f4xx_hal_rcc_ex.o
    0x08002208   0x00000280   Code   RO         2268    i.HAL_RCC_ClockConfig  stm32f4xx_hal_rcc.o
    0x08002488   0x00000034   Code   RO         2273    i.HAL_RCC_GetHCLKFreq  stm32f4xx_hal_rcc.o
    0x080024bc   0x0000008c   Code   RO         2277    i.HAL_RCC_GetSysClockFreq  stm32f4xx_hal_rcc.o
    0x08002548   0x00000430   Code   RO         2280    i.HAL_RCC_OscConfig  stm32f4xx_hal_rcc.o
    0x08002978   0x00000044   Code   RO         2921    i.HAL_SDRAM_Init    stm32f4xx_hal_sdram.o
    0x080029bc   0x00000004   Code   RO          434    i.HAL_SDRAM_MspInit  fmc.o
    0x080029c0   0x00000026   Code   RO         2924    i.HAL_SDRAM_ProgramRefreshRate  stm32f4xx_hal_sdram.o
    0x080029e6   0x00000038   Code   RO         2930    i.HAL_SDRAM_SendCommand  stm32f4xx_hal_sdram.o
    0x08002a1e   0x00000070   Code   RO         3897    i.HAL_SD_CheckReadOperation  stm32f4xx_hal_sd.o
    0x08002a8e   0x0000007a   Code   RO         3898    i.HAL_SD_CheckWriteOperation  stm32f4xx_hal_sd.o
    0x08002b08   0x00000002   Code   RO         3899    i.HAL_SD_DMA_RxCpltCallback  stm32f4xx_hal_sd.o
    0x08002b0a   0x00000002   Code   RO         3900    i.HAL_SD_DMA_RxErrorCallback  stm32f4xx_hal_sd.o
    0x08002b0c   0x00000002   Code   RO         3901    i.HAL_SD_DMA_TxCpltCallback  stm32f4xx_hal_sd.o
    0x08002b0e   0x00000002   Code   RO         3902    i.HAL_SD_DMA_TxErrorCallback  stm32f4xx_hal_sd.o
    0x08002b10   0x0000001a   Code   RO         3906    i.HAL_SD_GetStatus  stm32f4xx_hal_sd.o
    0x08002b2a   0x000002cc   Code   RO         3907    i.HAL_SD_Get_CardInfo  stm32f4xx_hal_sd.o
    0x08002df6   0x000000aa   Code   RO         3909    i.HAL_SD_IRQHandler  stm32f4xx_hal_sd.o
    0x08002ea0   0x0000009a   Code   RO         3910    i.HAL_SD_Init       stm32f4xx_hal_sd.o
    0x08002f3a   0x00000002   PAD
    0x08002f3c   0x0000013c   Code   RO          873    i.HAL_SD_MspInit    sdio.o
    0x08003078   0x0000010c   Code   RO         3914    i.HAL_SD_ReadBlocks_DMA  stm32f4xx_hal_sd.o
    0x08003184   0x0000002c   Code   RO         3916    i.HAL_SD_StopTransfer  stm32f4xx_hal_sd.o
    0x080031b0   0x00000082   Code   RO         3917    i.HAL_SD_WideBusOperation_Config  stm32f4xx_hal_sd.o
    0x08003232   0x00000002   PAD
    0x08003234   0x00000110   Code   RO         3919    i.HAL_SD_WriteBlocks_DMA  stm32f4xx_hal_sd.o
    0x08003344   0x00000002   Code   RO         3920    i.HAL_SD_XferCpltCallback  stm32f4xx_hal_sd.o
    0x08003346   0x00000002   Code   RO         3921    i.HAL_SD_XferErrorCallback  stm32f4xx_hal_sd.o
    0x08003348   0x0000001c   Code   RO         1993    i.HAL_SYSTICK_CLKSourceConfig  stm32f4xx_hal_cortex.o
    0x08003364   0x00000002   Code   RO         1994    i.HAL_SYSTICK_Callback  stm32f4xx_hal_cortex.o
    0x08003366   0x00000002   PAD
    0x08003368   0x00000028   Code   RO         1995    i.HAL_SYSTICK_Config  stm32f4xx_hal_cortex.o
    0x08003390   0x00000008   Code   RO         1996    i.HAL_SYSTICK_IRQHandler  stm32f4xx_hal_cortex.o
    0x08003398   0x00000028   Code   RO         1326    i.LCD_LOG_DeInit    lcd_log.o
    0x080033c0   0x00000010   Code   RO         1327    i.LCD_LOG_Init      lcd_log.o
    0x080033d0   0x00000074   Code   RO         1330    i.LCD_LOG_SetFooter  lcd_log.o
    0x08003444   0x00000064   Code   RO         1331    i.LCD_LOG_SetHeader  lcd_log.o
    0x080034a8   0x000000a0   Code   RO          967    i.LL_FillBuffer     stm324x9i_lcd.o
    0x08003548   0x000001c0   Code   RO         1538    i.LTDC_SetConfig    stm32f4xx_hal_ltdc.o
    0x08003708   0x00000044   Code   RO         4283    i.MSC_BOT_Abort     usbd_msc_bot.o
    0x0800374c   0x000000b8   Code   RO         4284    i.MSC_BOT_CBW_Decode  usbd_msc_bot.o
    0x08003804   0x0000002c   Code   RO         4285    i.MSC_BOT_CplClrFeature  usbd_msc_bot.o
    0x08003830   0x00000042   Code   RO         4286    i.MSC_BOT_DataIn    usbd_msc_bot.o
    0x08003872   0x0000003c   Code   RO         4287    i.MSC_BOT_DataOut   usbd_msc_bot.o
    0x080038ae   0x0000000a   Code   RO         4288    i.MSC_BOT_DeInit    usbd_msc_bot.o
    0x080038b8   0x00000042   Code   RO         4289    i.MSC_BOT_Init      usbd_msc_bot.o
    0x080038fa   0x00000018   Code   RO         4290    i.MSC_BOT_Reset     usbd_msc_bot.o
    0x08003912   0x00000002   PAD
    0x08003914   0x0000003c   Code   RO         4291    i.MSC_BOT_SendCSW   usbd_msc_bot.o
    0x08003950   0x00000036   Code   RO         4292    i.MSC_BOT_SendData  usbd_msc_bot.o
    0x08003986   0x00000002   PAD
    0x08003988   0x00000034   Code   RO          303    i.MX_DMA2D_Init     dma2d.o
    0x080039bc   0x00000078   Code   RO          484    i.MX_DMA_Init       dma.o
    0x08003a34   0x00000058   Code   RO          435    i.MX_FMC_Init       fmc.o
    0x08003a8c   0x000000e8   Code   RO          388    i.MX_GPIO_Init      gpio.o
    0x08003b74   0x000000d4   Code   RO          345    i.MX_LTDC_Init      ltdc.o
    0x08003c48   0x00000034   Code   RO          874    i.MX_SDIO_SD_Init   sdio.o
    0x08003c7c   0x00000038   Code   RO          771    i.MX_USB_DEVICE_Init  usb_device.o
    0x08003cb4   0x0000000c   Code   RO          227    i.OTG_FS_IRQHandler  stm32f4xx_it.o
    0x08003cc0   0x0000009a   Code   RO         3618    i.PCD_WriteEmptyTxFifo  stm32f4xx_hal_pcd.o
    0x08003d5a   0x00000022   Code   RO         4358    i.SCSI_CheckAddressRange  usbd_msc_scsi.o
    0x08003d7c   0x0000004c   Code   RO         4359    i.SCSI_Inquiry      usbd_msc_scsi.o
    0x08003dc8   0x00000024   Code   RO         4360    i.SCSI_ModeSense10  usbd_msc_scsi.o
    0x08003dec   0x00000024   Code   RO         4361    i.SCSI_ModeSense6   usbd_msc_scsi.o
    0x08003e10   0x000000ac   Code   RO         4362    i.SCSI_ProcessCmd   usbd_msc_scsi.o
    0x08003ebc   0x0000008c   Code   RO         4363    i.SCSI_ProcessRead  usbd_msc_scsi.o
    0x08003f48   0x0000009c   Code   RO         4364    i.SCSI_ProcessWrite  usbd_msc_scsi.o
    0x08003fe4   0x000000da   Code   RO         4365    i.SCSI_Read10       usbd_msc_scsi.o
    0x080040be   0x0000005a   Code   RO         4366    i.SCSI_ReadCapacity10  usbd_msc_scsi.o
    0x08004118   0x00000070   Code   RO         4367    i.SCSI_ReadFormatCapacity  usbd_msc_scsi.o
    0x08004188   0x00000068   Code   RO         4368    i.SCSI_RequestSense  usbd_msc_scsi.o
    0x080041f0   0x00000036   Code   RO         4369    i.SCSI_SenseCode    usbd_msc_scsi.o
    0x08004226   0x0000000c   Code   RO         4370    i.SCSI_StartStopUnit  usbd_msc_scsi.o
    0x08004232   0x0000004c   Code   RO         4371    i.SCSI_TestUnitReady  usbd_msc_scsi.o
    0x0800427e   0x0000003a   Code   RO         4372    i.SCSI_Verify10     usbd_msc_scsi.o
    0x080042b8   0x00000110   Code   RO         4373    i.SCSI_Write10      usbd_msc_scsi.o
    0x080043c8   0x00000024   Code   RO         3801    i.SDIO_DataConfig   stm32f4xx_ll_sdmmc.o
    0x080043ec   0x00000006   Code   RO         3802    i.SDIO_GetCommandResponse  stm32f4xx_ll_sdmmc.o
    0x080043f2   0x00000008   Code   RO         3805    i.SDIO_GetPowerState  stm32f4xx_ll_sdmmc.o
    0x080043fa   0x00000002   PAD
    0x080043fc   0x00000014   Code   RO         3806    i.SDIO_GetResponse  stm32f4xx_ll_sdmmc.o
    0x08004410   0x0000000c   Code   RO          228    i.SDIO_IRQHandler   stm32f4xx_it.o
    0x0800441c   0x0000002c   Code   RO         3807    i.SDIO_Init         stm32f4xx_ll_sdmmc.o
    0x08004448   0x00000008   Code   RO         3809    i.SDIO_PowerState_ON  stm32f4xx_ll_sdmmc.o
    0x08004450   0x00000006   Code   RO         3810    i.SDIO_ReadFIFO     stm32f4xx_ll_sdmmc.o
    0x08004456   0x00000020   Code   RO         3811    i.SDIO_SendCommand  stm32f4xx_ll_sdmmc.o
    0x08004476   0x0000002e   Code   RO         3922    i.SD_CmdError       stm32f4xx_hal_sd.o
    0x080044a4   0x00000120   Code   RO         3923    i.SD_CmdResp1Error  stm32f4xx_hal_sd.o
    0x080045c4   0x00000034   Code   RO         3924    i.SD_CmdResp2Error  stm32f4xx_hal_sd.o
    0x080045f8   0x00000026   Code   RO         3925    i.SD_CmdResp3Error  stm32f4xx_hal_sd.o
    0x0800461e   0x00000092   Code   RO         3926    i.SD_CmdResp6Error  stm32f4xx_hal_sd.o
    0x080046b0   0x0000004a   Code   RO         3927    i.SD_CmdResp7Error  stm32f4xx_hal_sd.o
    0x080046fa   0x0000001a   Code   RO         3928    i.SD_DMA_RxCplt     stm32f4xx_hal_sd.o
    0x08004714   0x0000000c   Code   RO         3929    i.SD_DMA_RxError    stm32f4xx_hal_sd.o
    0x08004720   0x0000001a   Code   RO         3930    i.SD_DMA_TxCplt     stm32f4xx_hal_sd.o
    0x0800473a   0x0000000c   Code   RO         3931    i.SD_DMA_TxError    stm32f4xx_hal_sd.o
    0x08004746   0x00000172   Code   RO         3932    i.SD_FindSCR        stm32f4xx_hal_sd.o
    0x080048b8   0x0000001a   Code   RO         3933    i.SD_GetState       stm32f4xx_hal_sd.o
    0x080048d2   0x000000f2   Code   RO         3934    i.SD_Initialize_Cards  stm32f4xx_hal_sd.o
    0x080049c4   0x00000174   Code   RO         3937    i.SD_PowerON        stm32f4xx_hal_sd.o
    0x08004b38   0x0000002e   Code   RO         3938    i.SD_Select_Deselect  stm32f4xx_hal_sd.o
    0x08004b66   0x00000052   Code   RO         3939    i.SD_SendStatus     stm32f4xx_hal_sd.o
    0x08004bb8   0x0000007a   Code   RO         3940    i.SD_WideBus_Disable  stm32f4xx_hal_sd.o
    0x08004c32   0x0000007c   Code   RO         3941    i.SD_WideBus_Enable  stm32f4xx_hal_sd.o
    0x08004cae   0x00000002   PAD
    0x08004cb0   0x00000030   Code   RO          809    i.STORAGE_GetCapacity_FS  usbd_storage_if.o
    0x08004ce0   0x00000004   Code   RO          810    i.STORAGE_GetMaxLun_FS  usbd_storage_if.o
    0x08004ce4   0x00000004   Code   RO          811    i.STORAGE_Init_FS   usbd_storage_if.o
    0x08004ce8   0x00000018   Code   RO          812    i.STORAGE_IsReady_FS  usbd_storage_if.o
    0x08004d00   0x00000004   Code   RO          813    i.STORAGE_IsWriteProtected_FS  usbd_storage_if.o
    0x08004d04   0x00000034   Code   RO          814    i.STORAGE_Read_FS   usbd_storage_if.o
    0x08004d38   0x00000038   Code   RO          815    i.STORAGE_Write_FS  usbd_storage_if.o
    0x08004d70   0x0000000e   Code   RO          229    i.SysTick_Handler   stm32f4xx_it.o
    0x08004d7e   0x00000002   PAD
    0x08004d80   0x000000a8   Code   RO            4    i.SystemClock_Config  main.o
    0x08004e28   0x00000058   Code   RO         1405    i.SystemInit        system_stm32f4xx.o
    0x08004e80   0x0000000e   Code   RO         4557    i.USBD_ClrClassConfig  usbd_core.o
    0x08004e8e   0x0000003c   Code   RO         4462    i.USBD_ClrFeature   usbd_ctlreq.o
    0x08004eca   0x00000010   Code   RO         4695    i.USBD_CtlContinueRx  usbd_ioreq.o
    0x08004eda   0x00000010   Code   RO         4696    i.USBD_CtlContinueSendData  usbd_ioreq.o
    0x08004eea   0x00000018   Code   RO         4463    i.USBD_CtlError     usbd_ctlreq.o
    0x08004f02   0x00000016   Code   RO         4698    i.USBD_CtlReceiveStatus  usbd_ioreq.o
    0x08004f18   0x0000001a   Code   RO         4699    i.USBD_CtlSendData  usbd_ioreq.o
    0x08004f32   0x00000016   Code   RO         4700    i.USBD_CtlSendStatus  usbd_ioreq.o
    0x08004f48   0x00000030   Code   RO          703    i.USBD_FS_ConfigStrDescriptor  usbd_desc.o
    0x08004f78   0x0000000c   Code   RO          704    i.USBD_FS_DeviceDescriptor  usbd_desc.o
    0x08004f84   0x00000034   Code   RO          705    i.USBD_FS_InterfaceStrDescriptor  usbd_desc.o
    0x08004fb8   0x0000000c   Code   RO          706    i.USBD_FS_LangIDStrDescriptor  usbd_desc.o
    0x08004fc4   0x00000028   Code   RO          707    i.USBD_FS_ManufacturerStrDescriptor  usbd_desc.o
    0x08004fec   0x00000038   Code   RO          708    i.USBD_FS_ProductStrDescriptor  usbd_desc.o
    0x08005024   0x00000034   Code   RO          709    i.USBD_FS_SerialStrDescriptor  usbd_desc.o
    0x08005058   0x00000030   Code   RO         4464    i.USBD_GetConfig    usbd_ctlreq.o
    0x08005088   0x0000012e   Code   RO         4465    i.USBD_GetDescriptor  usbd_ctlreq.o
    0x080051b6   0x00000018   Code   RO         4466    i.USBD_GetLen       usbd_ctlreq.o
    0x080051ce   0x00000028   Code   RO         4467    i.USBD_GetStatus    usbd_ctlreq.o
    0x080051f6   0x00000042   Code   RO         4468    i.USBD_GetString    usbd_ctlreq.o
    0x08005238   0x0000002c   Code   RO         4559    i.USBD_Init         usbd_core.o
    0x08005264   0x0000000e   Code   RO          527    i.USBD_LL_ClearStallEP  usbd_conf.o
    0x08005272   0x0000000e   Code   RO          528    i.USBD_LL_CloseEP   usbd_conf.o
    0x08005280   0x000000ba   Code   RO         4560    i.USBD_LL_DataInStage  usbd_core.o
    0x0800533a   0x00000072   Code   RO         4561    i.USBD_LL_DataOutStage  usbd_core.o
    0x080053ac   0x00000004   Code   RO         4562    i.USBD_LL_DevConnected  usbd_core.o
    0x080053b0   0x00000016   Code   RO         4563    i.USBD_LL_DevDisconnected  usbd_core.o
    0x080053c6   0x0000000e   Code   RO          531    i.USBD_LL_FlushEP   usbd_conf.o
    0x080053d4   0x00000008   Code   RO          532    i.USBD_LL_GetRxDataSize  usbd_conf.o
    0x080053dc   0x0000005c   Code   RO          533    i.USBD_LL_Init      usbd_conf.o
    0x08005438   0x00000022   Code   RO          534    i.USBD_LL_IsStallEP  usbd_conf.o
    0x0800545a   0x00000004   Code   RO         4564    i.USBD_LL_IsoINIncomplete  usbd_core.o
    0x0800545e   0x00000004   Code   RO         4565    i.USBD_LL_IsoOUTIncomplete  usbd_core.o
    0x08005462   0x00000014   Code   RO          535    i.USBD_LL_OpenEP    usbd_conf.o
    0x08005476   0x0000000e   Code   RO          536    i.USBD_LL_PrepareReceive  usbd_conf.o
    0x08005484   0x00000040   Code   RO         4566    i.USBD_LL_Reset     usbd_core.o
    0x080054c4   0x0000000c   Code   RO         4567    i.USBD_LL_Resume    usbd_core.o
    0x080054d0   0x00000018   Code   RO         4568    i.USBD_LL_SOF       usbd_core.o
    0x080054e8   0x00000006   Code   RO         4569    i.USBD_LL_SetSpeed  usbd_core.o
    0x080054ee   0x0000000e   Code   RO          537    i.USBD_LL_SetUSBAddress  usbd_conf.o
    0x080054fc   0x0000005e   Code   RO         4570    i.USBD_LL_SetupStage  usbd_core.o
    0x0800555a   0x0000000e   Code   RO          538    i.USBD_LL_StallEP   usbd_conf.o
    0x08005568   0x0000000e   Code   RO          539    i.USBD_LL_Start     usbd_conf.o
    0x08005576   0x00000012   Code   RO         4571    i.USBD_LL_Suspend   usbd_core.o
    0x08005588   0x0000000e   Code   RO          541    i.USBD_LL_Transmit  usbd_conf.o
    0x08005596   0x0000000a   Code   RO         4172    i.USBD_MSC_DataIn   usbd_msc.o
    0x080055a0   0x0000000a   Code   RO         4173    i.USBD_MSC_DataOut  usbd_msc.o
    0x080055aa   0x0000002e   Code   RO         4174    i.USBD_MSC_DeInit   usbd_msc.o
    0x080055d8   0x0000000c   Code   RO         4175    i.USBD_MSC_GetDeviceQualifierDescriptor  usbd_msc.o
    0x080055e4   0x0000000c   Code   RO         4176    i.USBD_MSC_GetFSCfgDesc  usbd_msc.o
    0x080055f0   0x0000000c   Code   RO         4177    i.USBD_MSC_GetHSCfgDesc  usbd_msc.o
    0x080055fc   0x0000000c   Code   RO         4178    i.USBD_MSC_GetOtherSpeedCfgDesc  usbd_msc.o
    0x08005608   0x0000005e   Code   RO         4179    i.USBD_MSC_Init     usbd_msc.o
    0x08005666   0x0000000c   Code   RO         4180    i.USBD_MSC_RegisterStorage  usbd_msc.o
    0x08005672   0x00000108   Code   RO         4181    i.USBD_MSC_Setup    usbd_msc.o
    0x0800577a   0x00000028   Code   RO         4469    i.USBD_ParseSetupRequest  usbd_ctlreq.o
    0x080057a2   0x00000012   Code   RO         4572    i.USBD_RegisterClass  usbd_core.o
    0x080057b4   0x00000004   Code   RO         4573    i.USBD_RunTestMode  usbd_core.o
    0x080057b8   0x00000054   Code   RO         4470    i.USBD_SetAddress   usbd_ctlreq.o
    0x0800580c   0x00000018   Code   RO         4574    i.USBD_SetClassConfig  usbd_core.o
    0x08005824   0x000000c4   Code   RO         4471    i.USBD_SetConfig    usbd_ctlreq.o
    0x080058e8   0x00000024   Code   RO         4472    i.USBD_SetFeature   usbd_ctlreq.o
    0x0800590c   0x0000000a   Code   RO         4575    i.USBD_Start        usbd_core.o
    0x08005916   0x0000005c   Code   RO         4473    i.USBD_StdDevReq    usbd_ctlreq.o
    0x08005972   0x0000012a   Code   RO         4474    i.USBD_StdEPReq     usbd_ctlreq.o
    0x08005a9c   0x00000044   Code   RO         4475    i.USBD_StdItfReq    usbd_ctlreq.o
    0x08005ae0   0x00000094   Code   RO         3299    i.USB_ActivateEndpoint  stm32f4xx_ll_usb.o
    0x08005b74   0x00000034   Code   RO         3300    i.USB_ActivateSetup  stm32f4xx_ll_usb.o
    0x08005ba8   0x00000072   Code   RO         3302    i.USB_CoreInit      stm32f4xx_ll_usb.o
    0x08005c1a   0x00000002   PAD
    0x08005c1c   0x0000003c   Code   RO         3303    i.USB_CoreReset     stm32f4xx_ll_usb.o
    0x08005c58   0x0000007e   Code   RO         3305    i.USB_DeactivateEndpoint  stm32f4xx_ll_usb.o
    0x08005cd6   0x00000018   Code   RO         3306    i.USB_DevConnect    stm32f4xx_ll_usb.o
    0x08005cee   0x00000018   Code   RO         3307    i.USB_DevDisconnect  stm32f4xx_ll_usb.o
    0x08005d06   0x00000002   PAD
    0x08005d08   0x00000150   Code   RO         3308    i.USB_DevInit       stm32f4xx_ll_usb.o
    0x08005e58   0x0000000c   Code   RO         3309    i.USB_DisableGlobalInt  stm32f4xx_ll_usb.o
    0x08005e64   0x0000015a   Code   RO         3312    i.USB_EP0StartXfer  stm32f4xx_ll_usb.o
    0x08005fbe   0x0000003e   Code   RO         3313    i.USB_EP0_OutStart  stm32f4xx_ll_usb.o
    0x08005ffc   0x00000064   Code   RO         3314    i.USB_EPClearStall  stm32f4xx_ll_usb.o
    0x08006060   0x00000064   Code   RO         3315    i.USB_EPSetStall    stm32f4xx_ll_usb.o
    0x080060c4   0x00000260   Code   RO         3316    i.USB_EPStartXfer   stm32f4xx_ll_usb.o
    0x08006324   0x0000000c   Code   RO         3317    i.USB_EnableGlobalInt  stm32f4xx_ll_usb.o
    0x08006330   0x00000024   Code   RO         3318    i.USB_FlushRxFifo   stm32f4xx_ll_usb.o
    0x08006354   0x00000028   Code   RO         3319    i.USB_FlushTxFifo   stm32f4xx_ll_usb.o
    0x0800637c   0x0000003c   Code   RO         3321    i.USB_GetDevSpeed   stm32f4xx_ll_usb.o
    0x080063b8   0x00000008   Code   RO         3323    i.USB_GetMode       stm32f4xx_ll_usb.o
    0x080063c0   0x0000000e   Code   RO         3330    i.USB_ReadDevAllInEpInterrupt  stm32f4xx_ll_usb.o
    0x080063ce   0x0000000e   Code   RO         3331    i.USB_ReadDevAllOutEpInterrupt  stm32f4xx_ll_usb.o
    0x080063dc   0x0000001e   Code   RO         3332    i.USB_ReadDevInEPInterrupt  stm32f4xx_ll_usb.o
    0x080063fa   0x00000010   Code   RO         3333    i.USB_ReadDevOutEPInterrupt  stm32f4xx_ll_usb.o
    0x0800640a   0x00000008   Code   RO         3334    i.USB_ReadInterrupts  stm32f4xx_ll_usb.o
    0x08006412   0x00000024   Code   RO         3335    i.USB_ReadPacket    stm32f4xx_ll_usb.o
    0x08006436   0x0000002e   Code   RO         3337    i.USB_SetCurrentMode  stm32f4xx_ll_usb.o
    0x08006464   0x00000022   Code   RO         3338    i.USB_SetDevAddress  stm32f4xx_ll_usb.o
    0x08006486   0x0000000e   Code   RO         3339    i.USB_SetDevSpeed   stm32f4xx_ll_usb.o
    0x08006494   0x00000030   Code   RO         3342    i.USB_WritePacket   stm32f4xx_ll_usb.o
    0x080064c4   0x0000000e   Code   RO         4807    i.__scatterload_copy  mc_w.l(handlers.o)
    0x080064d2   0x00000002   Code   RO         4808    i.__scatterload_null  mc_w.l(handlers.o)
    0x080064d4   0x0000000e   Code   RO         4809    i.__scatterload_zeroinit  mc_w.l(handlers.o)
    0x080064e2   0x00000002   PAD
    0x080064e4   0x00000050   Code   RO         4755    i.free              mc_w.l(malloc.o)
    0x08006534   0x00000088   Code   RO            5    i.main              main.o
    0x080065bc   0x0000006c   Code   RO         4756    i.malloc            mc_w.l(malloc.o)
    0x08006628   0x00000024   Data   RO          816    .constdata          usbd_storage_if.o
    0x0800664c   0x00001ab8   Data   RO          969    .constdata          stm324x9i_lcd.o
    0x08008104   0x00000ed8   Data   RO          970    .constdata          stm324x9i_lcd.o
    0x08008fdc   0x00000be0   Data   RO          971    .constdata          stm324x9i_lcd.o
    0x08009bbc   0x00000008   Data   RO         1715    .constdata          stm32f4xx_hal_dma.o
    0x08009bc4   0x00000010   Data   RO         2281    .constdata          stm32f4xx_hal_rcc.o
    0x08009bd4   0x00000007   Data   RO         4257    .constdata          usbd_msc_data.o
    0x08009bdb   0x00000008   Data   RO         4258    .constdata          usbd_msc_data.o
    0x08009be3   0x00000008   Data   RO         4259    .constdata          usbd_msc_data.o
    0x08009beb   0x00000001   PAD
    0x08009bec   0x00000020   Data   RO         4805    Region$$Table       anon$$obj.o


    Execution Region RW_IRAM1 (Base: 0x20000000, Size: 0x00002058, Max: 0x00030000, ABSOLUTE, COMPRESSED[0x000000bc])

    Base Addr    Size         Type   Attr      Idx    E Section Name        Object

    0x20000000   0x00000008   Data   RW          437    .data               fmc.o
    0x20000008   0x0000001c   Data   RW          711    .data               usbd_desc.o
    0x20000024   0x00000016   Data   RW          712    .data               usbd_desc.o
    0x2000003a   0x00000002   PAD
    0x2000003c   0x00000020   Data   RW          817    .data               usbd_storage_if.o
    0x2000005c   0x0000000c   Data   RW          974    .data               stm324x9i_lcd.o
    0x20000068   0x00000008   Data   RW          975    .data               stm324x9i_lcd.o
    0x20000070   0x00000008   Data   RW          976    .data               stm324x9i_lcd.o
    0x20000078   0x00000001   Data   RW         1265    .data               stm324x9i_sdram.o
    0x20000079   0x00000003   PAD
    0x2000007c   0x00000014   Data   RW         1335    .data               lcd_log.o
    0x20000090   0x00000004   Data   RW         1407    .data               system_stm32f4xx.o
    0x20000094   0x00000004   Data   RW         1846    .data               stm32f4xx_hal.o
    0x20000098   0x00000038   Data   RW         4182    .data               usbd_msc.o
    0x200000d0   0x0000006a   Data   RW         4183    .data               usbd_msc.o
    0x2000013a   0x00000001   Data   RW         4476    .data               usbd_ctlreq.o
    0x2000013b   0x00000001   PAD
    0x2000013c   0x00000004   Data   RW         4801    .data               mc_w.l(mvars.o)
    0x20000140   0x00000004   Data   RW         4802    .data               mc_w.l(mvars.o)
    0x20000144   0x00000040   Zero   RW          304    .bss                dma2d.o
    0x20000184   0x000000a8   Zero   RW          346    .bss                ltdc.o
    0x2000022c   0x00000034   Zero   RW          436    .bss                fmc.o
    0x20000260   0x00000058   Zero   RW          485    .bss                dma.o
    0x200002b8   0x000003b8   Zero   RW          542    .bss                usbd_conf.o
    0x20000670   0x00000200   Zero   RW          710    .bss                usbd_desc.o
    0x20000870   0x00000224   Zero   RW          772    .bss                usb_device.o
    0x20000a94   0x00000004   PAD
    0x20000a98   0x00000168   Zero   RW          875    .bss                sdio.o
    0x20000c00   0x00000048   Zero   RW          968    .bss                stm324x9i_lcd.o
    0x20000c48   0x00000010   Zero   RW         1264    .bss                stm324x9i_sdram.o
    0x20000c58   0x00001000   Zero   RW         4163    HEAP                startup_stm32f429xx.o
    0x20001c58   0x00000400   Zero   RW         4162    STACK               startup_stm32f429xx.o


==============================================================================

Image component sizes


      Code (inc. data)   RO Data    RW Data    ZI Data      Debug   Object Name

       120         14          0          0         88       1183   dma.o
        92         12          0          0         64       1713   dma2d.o
       276         38          0          8         52       2396   fmc.o
       232         18          0          0          0       1243   gpio.o
       272         26          0         20          0       4377   lcd_log.o
       436         44          0          0        168       2046   ltdc.o
       304         70          0          0          0     421190   main.o
       368         34          0          0        360       2066   sdio.o
        36          8        428          0       5120        968   startup_stm32f429xx.o
      1140        136      13680         28         72      16002   stm324x9i_lcd.o
       152         14          0          1         16       1889   stm324x9i_sdram.o
       136         16          0          4          0       4482   stm32f4xx_hal.o
       242         16          0          0          0      31781   stm32f4xx_hal_cortex.o
       908         22          8          0          0       5703   stm32f4xx_hal_dma.o
       854          6          0          0          0       5939   stm32f4xx_hal_dma2d.o
       536         18          0          0          0       2064   stm32f4xx_hal_gpio.o
       840          4          0          0          0       3287   stm32f4xx_hal_ltdc.o
        22          0          0          0          0        546   stm32f4xx_hal_msp.o
      2166          0          0          0          0      12468   stm32f4xx_hal_pcd.o
        80          0          0          0          0       2092   stm32f4xx_hal_pcd_ex.o
      1904         80         16          0          0       6377   stm32f4xx_hal_rcc.o
       768         44          0          0          0       1948   stm32f4xx_hal_rcc_ex.o
      4130         40          0          0          0      33215   stm32f4xx_hal_sd.o
       162          0          0          0          0       2928   stm32f4xx_hal_sdram.o
        62         24          0          0          0       2588   stm32f4xx_it.o
       310          0          0          0          0       3880   stm32f4xx_ll_fmc.o
       160          4          0          0          0       5912   stm32f4xx_ll_sdmmc.o
      2528         32          0          0          0      22194   stm32f4xx_ll_usb.o
        88         24          0          4          0       1485   system_stm32f4xx.o
        56         18          0          0        548        816   usb_device.o
       576         22          0          0        952      15552   usbd_conf.o
       666          0          0          0          0      13497   usbd_core.o
      1378         30          0          1          0      11880   usbd_ctlreq.o
       272        112          0         50        512       5775   usbd_desc.o
       102          0          0          0          0       4096   usbd_ioreq.o
       484         16          0        162          0       9988   usbd_msc.o
       636         10          0          0          0       8389   usbd_msc_bot.o
         0          0         23          0          0        953   usbd_msc_data.o
      1646         14          0          0          0      14703   usbd_msc_scsi.o
       192         30         36         32          0       5144   usbd_storage_if.o

    ----------------------------------------------------------------------
     25360        996      14224        316       7956     694755   Object Totals
         0          0         32          0          0          0   (incl. Generated)
        28          0          1          6          4          0   (incl. Padding)

    ----------------------------------------------------------------------

      Code (inc. data)   RO Data    RW Data    ZI Data      Debug   Library Member Name

        86          0          0          0          0          0   __dczerorl2.o
         0          0          0          0          0          0   entry.o
         0          0          0          0          0          0   entry10a.o
         0          0          0          0          0          0   entry11a.o
         8          4          0          0          0          0   entry2.o
         4          0          0          0          0          0   entry5.o
         0          0          0          0          0          0   entry7b.o
         0          0          0          0          0          0   entry8b.o
         8          4          0          0          0          0   entry9a.o
        30          0          0          0          0          0   handlers.o
        36          8          0          0          0         68   init.o
       188         20          0          0          0        160   malloc.o
         0          0          0          8          0          0   mvars.o

    ----------------------------------------------------------------------
       364         36          0          8          0        228   Library Totals
         4          0          0          0          0          0   (incl. Padding)

    ----------------------------------------------------------------------

      Code (inc. data)   RO Data    RW Data    ZI Data      Debug   Library Name

       360         36          0          8          0        228   mc_w.l

    ----------------------------------------------------------------------
       364         36          0          8          0        228   Library Totals

    ----------------------------------------------------------------------

==============================================================================


      Code (inc. data)   RO Data    RW Data    ZI Data      Debug   

     25724       1032      14224        324       7956     668215   Grand Totals
     25724       1032      14224        188       7956     668215   ELF Image Totals (compressed)
     25724       1032      14224        188          0          0   ROM Totals

==============================================================================

    Total RO  Size (Code + RO Data)                39948 (  39.01kB)
    Total RW  Size (RW Data + ZI Data)              8280 (   8.09kB)
    Total ROM Size (Code + RO Data + RW Data)      40136 (  39.20kB)

==============================================================================

